(lp1
(dp2
S'ModulePrevious'
p3
S'MA_41_Prog'
p4
sS'ModuleCurrent'
p5
S'Horizon_Prog'
p6
sS'Version'
p7
I1
sS'Geometry'
p8
S'1914x1008+-8+0'
p9
sS'ProjectName'
p10
g6
sS'ImportTypes'
p11
(lp12
(S'Pmw'
p13
S'import'
p14
tp15
a(S'Tkinter'
p16
S'from'
p17
tp18
asS'EditorWidths'
p19
((lp20
I132
aI132
a(lp21
I132
aI132
a(lp22
I130
aI130
atp23
sS'ID'
p24
S'Rapyd Project'
p25
sS'ParkingLot'
p26
(dp27
S'SelectedWidreq'
p28
NsS'Widreqs'
p29
(lp30
ssa(dp31
S'PreviousForm'
p32
S'-Main-'
p33
sS'OnTab'
p34
I1
sg33
(dp35
S'Cursor'
p36
S'202.39'
p37
sS'Text'
p38
(lp39
S''
aS'#!/usr/bin/python\n#coding=utf8\n\n'
p40
aS'import rpErrorHandler\nfrom Tkinter import *\n'
p41
aV\u000aconnected=0\u000aCOMtimeout=30\u000astop_reading_COM=0\u000atrim=7\u000a\u000adef lamp_wdg_0():\u000a    write_ram_eep('lamp wdg 0')\u000a    write_ram_eep('at thr gas 1')    \u000a    write_ram_eep('at thr alm 5')    \u000a\u000adef read_string_from_serial():\u000a    char = '*'\u000a    string=""\u000a    while (char<>'') and (char <> '\u005cr'):\u000a        char=ser.read()\u000a        string=string+char\u000a        if char=='\u005cr':\u000a            string=string+'\u005cn'     \u000a        if (char=='') and (string<>""):         \u000a            string=string+'\u005cn'\u000a    return string\u000a\u000adef read_and_print(disable_stop):\u000a    string=''\u000a    if stop_reading_COM==1 and disable_stop==0: return ''\u000a    global connected\u000a    if connected==1: \u000a        string=read_string_from_serial()\u000a        if string<>"":\u000a            App._ReceivedText.insert('1.0', string)\u000a            if 'Mar 25 2020'  in string:  \u000a                App._ReceivedText.insert('1.0', '**********************************************************\u005cn')\u000a                App._ReceivedText.insert('1.0', '***************\u041f\u0415\u0420\u0415\u041f\u0420\u041e\u0428\u0418\u0422\u042c!!!!!!*****************\u005cn')                \u000a                App._ReceivedText.insert('1.0', '**********************************************************\u005cn')                \u000a    return string\u000a            \u000adef verify(string,value,type):\u000a    if type=='ataddr':\u000a        if string.upper().find(("0X"+str(hex(numh()*256+numl()))[2:].zfill(4)).upper())==-1: return 0\u000a    if type=='ipaddr':\u000a        if string.find(value)==-1: return 0\u000a    if type=='macaddr':\u000a        if string.find(value[:12]+str(hex(numh())[2:]).upper().zfill(2)+':'+str(hex(numl())[2:]).upper().zfill(2))==-1: return 0\u000a        \u000a    return 1\u000a        \u000a\u000a\u000adef write_and_verify(param,value,type):\u000a    if value=='': return 1 #1-ok, 0-not ok\u000a    global stop_reading_COM\u000a    stop_reading_COM=1        \u000a\u000a    write_eep(param+' '+value)\u000a    string=write_eep(param)      \u000a\u000a    if verify(string,value,type)==0:\u000a        stop_reading_COM=0\u000a        return 0\u000a        \u000a    stop_reading_COM=0\u000a    return 1\u000a    \u000a    \u000adef loopproc():             \u000a     read_and_print(0)\u000a     setup_ip_mac_etc() \u000a     Root.after(COMtimeout,loopproc) \u000a\u000adef write_ram(string):\u000a    read_and_print(1)\u000a    ser.write(string+'\u005cr') \u000a    read_and_print(1)\u000a    return read_and_print(1)\u000a    \u000adef write_eep(string):\u000a    read_and_print(1)\u000a    ser.write('eeprom '+string+'\u005cr')\u000a    read_and_print(1)\u000a    return read_and_print(1)\u000a    \u000adef write_ram_eep(string):      \u000a    write_eep(string)\u000a    write_ram(string)\u000a    \u000a    \u000adef numh():\u000a    return int(math.floor(int(App.serial_number.get())/1000))\u000a   \u000adef numl():\u000a    return int(int(App.serial_number.get()) % 1000)\u000a\u000adef setup_ip_mac_etc():  \u000a\u000a    if App.serial_number.get()=='':return\u000a\u000a    try:\u000a        int(App.serial_number.get())\u000a    except:\u000a        App.serial_number.set('')\u000a        mbox.showerror('\u041e\u0448\u0438\u0431\u043a\u0430','\u041d\u0435\u0434\u043e\u043f\u0443\u0441\u0442\u0438\u043c\u044b\u0439 \u0441\u0438\u043c\u0432\u043e\u043b!')\u000a        return\u000a        \u000a        \u000a\u000a    if App.device.get()=='ma41' or App.device.get()=='ma45':    \u000a        App.ataddr.set(hex(numh()*256+numl()))\u000a        App.phyipaddr.set('10.2.'+str(numh())+'.'+str(numl()))\u000a        App.ethipaddr.set('')\u000a        App.phymacaddr.set('00:11:D8:13:'+hex(numh())[2:]+':'+hex(numl())[2:])\u000a        App.ethmacaddr.set('')        \u000a\u000a    if App.device.get()=='lsr4':\u000a        App.ataddr.set(hex(numh()*256+numl()))\u000a        App.phyipaddr.set('10.1.'+str(numh())+'.'+str(numl()))\u000a        App.ethipaddr.set('')\u000a        App.phymacaddr.set('00:11:D8:13:'+hex(numh())[2:]+':'+hex(numl())[2:])\u000a        App.ethmacaddr.set('')        \u000a\u000a    if App.device.get()=='lse4':\u000a        App.ataddr.set(hex(numh()*256+numl()))\u000a        App.phyipaddr.set('10.2.'+str(numh())+'.'+str(numl()))\u000a        App.ethipaddr.set('10.0.'+str(numh())+'.'+str(numl()))\u000a        App.phymacaddr.set('00:11:D8:13:'+hex(numh())[2:]+':'+hex(numl())[2:])\u000a        App.ethmacaddr.set('00:11:D8:14:'+hex(numh())[2:]+':'+hex(numl())[2:]) \u000a\u000a    if App.device.get()=='1m500':            \u000a        App.ataddr.set('')\u000a        App.phyipaddr.set('10.1.'+str(numh())+'.'+str(numl()))\u000a        App.ethipaddr.set('10.0.'+str(numh())+'.'+str(numl()))\u000a        App.phymacaddr.set('00:11:D8:13:'+hex(numh())[2:]+':'+hex(numl())[2:])\u000a        App.ethmacaddr.set('00:11:D8:14:'+hex(numh())[2:]+':'+hex(numl())[2:])          \u000a        \u000a    if App.device.get()=='ma45': \u000a        App._ma45_treshold_patch.config(state="normal")\u000a    else:   \u000a        App._ma45_treshold_patch.config(state="disabled")\u000a\u000atry:\u000a    #--------------------------------------------------------------------------#\u000a    # User code should go after this comment so it is inside the "try".        #\u000a    #     This allows rpErrorHandler to gain control on an error so it         #\u000a    #     can properly display a Rapyd-aware error message.                    #\u000a    #--------------------------------------------------------------------------#\u000a\u000a    #Adjust sys.path so we can find other modules of this project\u000a   \u000a   \u000a\u000a    \u000a    \u000a    \u000a    if '.' not in sys.path:\u000a        sys.path.append('.')\u000a    #Put lines to import other modules of this project here\u000a \u000a    import sys\u000a    \u000a    import serial\u000a    import msvcrt\u000a    import time\u000a    import math\u000a    import tkMessageBox as mbox\u000a \u000a \u000a    \u000a    if __name__ == '__main__':\u000a
p42
aS"        Root = Tk()\n        import Tkinter\n        Tkinter.CallWrapper = rpErrorHandler.CallWrapper\n        del Tkinter\n        App = Horizon_Prog(Root)\n        App.pack(expand='yes',fill='both')\n"
p43
aS"        Root.geometry('1000x860+10+10')\n        Root.title('Horizon programming')\n\n        \n        Root.after(COMtimeout,loopproc)\n        \n        def left_key(event): \n           if App.ArrowKeysOn.get()==1:\n               if connected==1:\n                   App._on__left_command()\n            \n        def right_key(event):\n           if App.ArrowKeysOn.get()==1:\n                if connected==1:\n                   App._on__right_command()            \n\n        def up_key(event):\n                if connected==1:\n                   App._on__prog_and_increment_command()    \n                   \n        def down_key(event):\n                if connected==1:\n                   App._on__prog_and_decrement_command()                                \n        \n        Root.bind('<Left>', left_key)\n        Root.bind('<Right>', right_key)\n        Root.bind('<Up>', up_key)\n        Root.bind('<Down>', down_key)\n\n        \n        Root.mainloop()\n    #--------------------------------------------------------------------------#\n    # User code should go above this comment.                                  #\n    #--------------------------------------------------------------------------#\nexcept:\n    rpErrorHandler.RunError()"
p44
asg7
I0
sS'Sha'
p45
I9454975
ssS'Forms'
p46
(lp47
(dp48
S'Requested'
p49
S'Gui'
p50
sS'Name'
p51
S'Horizon_Prog'
p52
sg28
S'_prog_and_increment'
p53
sS'Type'
p54
S'Tkinter.Frame'
p55
sS'Lines'
p56
(lp57
(lp58
I9854
aI4994
aI1
aa(lp59
I2520
aI4994
aI1
aa(lp60
I1260
aI7884
aI0
aa(lp61
I1260
aI7255
aI0
aa(lp62
I1260
aI6941
aI0
aa(lp63
I1260
aI8779
aI0
aa(lp64
I1260
aI2817
aI0
aa(lp65
I1260
aI2044
aI0
aa(lp66
I1260
aI1729
aI0
aa(lp67
I1260
aI1439
aI0
aa(lp68
I1260
aI1125
aI0
aa(lp69
I475
aI7570
aI1
aa(lp70
I1284
aI7570
aI1
aa(lp71
I1582
aI8331
aI1
aa(lp72
I6184
aI5502
aI0
aa(lp73
I6184
aI6505
aI0
aa(lp74
I6184
aI8561
aI0
aa(lp75
I6184
aI9069
aI0
aa(lp76
I6184
aI6892
aI0
aa(lp77
I6184
aI7388
aI0
aa(lp78
I6184
aI9335
aI0
aa(lp79
I6184
aI5985
aI0
aa(lp80
I6184
aI4135
aI0
aa(lp81
I6184
aI1729
aI0
aa(lp82
I4425
aI2926
aI1
aasg38
(dp83
g36
S'419.19'
p84
sg38
(lp85
S'#------------------------------------------------------------------------------#\n#                                                                              #\n#                                 Horizon_Prog                                 #\n#                                                                              #\n#------------------------------------------------------------------------------#\nclass Horizon_Prog(Frame):\n    def __init__(self,Master=None,*pos,**kw):\n'
p86
aS'        #\n        #Your code here\n        #    \n'
p87
aV\u000a        apply(Frame.__init__,(self,Master),kw)\u000a        self.device = StringVar()\u000a        self.ArrowKeysOn = IntVar()\u000a        self.ataddr = StringVar()\u000a        self.entry_at_addr = StringVar()\u000a        self.entry_at_addr_exe = StringVar()\u000a        self.entry_at_addr_rt = StringVar()\u000a        self.dev_mac = StringVar()\u000a        self.ethipaddr = StringVar()\u000a        self.ethmacaddr = StringVar()\u000a        self.ifbw = IntVar()\u000a        self.entry_ipaddr = StringVar()\u000a        self.ma45_treshold_patch = IntVar()\u000a        self.phyipaddr = StringVar()\u000a        self.phymacaddr = StringVar()\u000a        self.serial_number = StringVar()\u000a        self.text_to_send = StringVar()\u000a        self.text_to_send2 = StringVar()\u000a        self._Frame2 = Frame(self)\u000a        self._Frame2.pack(fill='y',side='left')\u000a        self._Frame4 = Frame(self,background='#dbdbdb')\u000a        self._Frame4.pack(fill='y',side='left')\u000a        self._Frame3 = Frame(self)\u000a        self._Frame3.pack(side='left')\u000a        self._Frame27 = Frame(self._Frame2)\u000a        self._Frame27.pack(side='top')\u000a        self._Label1 = Label(self._Frame27,text='\u0412\u044b\u0431\u0435\u0440\u0435\u0442\u0435 COM-\u043f\u043e\u0440\u0442')\u000a        self._Label1.pack(side='top')\u000a        self._ComPortsList = Listbox(self._Frame27,selectmode='single')\u000a        self._ComPortsList.pack(side='top')\u000a        self._COM_port_connect = Button(self._Frame27\u000a            ,command=self._on__COM_port_connect_command,text='\u041e\u0442\u043a\u0440\u044b\u0442\u044c COM-\u043f\u043e\u0440\u0442')\u000a        self._COM_port_connect.pack(side='bottom')\u000a        self._Frame26 = Frame(self._Frame2)\u000a        self._Frame26.pack(fill='x',side='top')\u000a        self._Label3 = Label(self._Frame26,justify='left'\u000a            ,text='\u0412\u044b\u0431\u0435\u0440\u0435\u0442\u0435 \u0443\u0441\u0442\u0440\u043e\u0439\u0441\u0442\u0432\u043e:')\u000a        self._Label3.pack(anchor='w',side='left')\u000a        self._Frame7 = Frame(self._Frame2)\u000a        self._Frame7.pack(fill='x',side='top')\u000a        self._MA41 = Radiobutton(self._Frame7,command=self._set_serial\u000a            ,justify='left',text='\u041c\u043e\u0434\u0443\u043b\u044c \u041c\u0410-41',value='ma41'\u000a            ,variable=self.device)\u000a        self._MA41.pack(anchor='w',side='left')\u000a        self._Frame11 = Frame(self._Frame2)\u000a        self._Frame11.pack(fill='x',side='top')\u000a        self._MA45 = Radiobutton(self._Frame11,command=self._set_serial\u000a            ,text='\u041c\u043e\u0434\u0443\u043b\u044c \u041c\u0410-45',value='ma45',variable=self.device)\u000a        self._MA45.pack(side='left')\u000a        self._ma45_treshold_patch = Checkbutton(self._Frame11,state='disabled'\u000a            ,text='MA-45 patch',variable=self.ma45_treshold_patch)\u000a        self._ma45_treshold_patch.pack(side='left')\u000a        self._Frame12 = Frame(self._Frame2)\u000a        self._Frame12.pack(fill='x',side='top')\u000a        self._LSR4 = Radiobutton(self._Frame12,command=self._set_serial\u000a            ,justify='left',text='\u0421\u0447\u0438\u0442\u044b\u0432\u0430\u0442\u0435\u043b\u044c \u041b\u0421-\u04204',value='lsr4'\u000a            ,variable=self.device)\u000a        self._LSR4.pack(anchor='w',side='top')\u000a        self._LSE4 = Radiobutton(self._Frame12,command=self._set_serial\u000a            ,justify='left',text='\u0421\u0447\u0438\u0442\u044b\u0432\u0430\u0442\u0435\u043b\u044c \u041b\u0421-\u04154',value='lse4'\u000a            ,variable=self.device)\u000a        self._LSE4.pack(anchor='w',side='top')\u000a        self._1M500 = Radiobutton(self._Frame12,command=self._set_serial\u000a            ,justify='left',text='\u041a\u0430\u0441\u0441\u0435\u0442\u0430 1-M-500',value='1m500'\u000a            ,variable=self.device)\u000a        self._1M500.pack(anchor='w',side='top')\u000a        self._Frame6 = Frame(self._Frame2)\u000a        self._Frame6.pack(side='top')\u000a        self._Label2 = Label(self._Frame6,text='\u0421\u0435\u0440\u0438\u0439\u043d\u044b\u0439 \u043d\u043e\u043c\u0435\u0440:')\u000a        self._Label2.pack(side='top')\u000a        self._serialnumber = Entry(self._Frame6,textvariable=self.serial_number)\u000a        self._serialnumber.pack(side='top')\u000a        self._prog_and_increment = Button(self._Frame6\u000a            ,command=self._on__prog_and_increment_command,state='disabled'\u000a            ,text='TEST (up key)')\u000a        self._prog_and_increment.pack(side='top')\u000a        self._GasThreshold = Button(self._Frame6\u000a            ,command=self._on__GasThreshold_command,state='disabled'\u000a            ,text='Write Gas Threshold')\u000a        self._GasThreshold.pack(side='top')\u000a        self._ethmacaddr = Entry(self._Frame6,state='disabled'\u000a            ,textvariable=self.ethmacaddr)\u000a        self._ethmacaddr.pack(side='bottom')\u000a        self._Label8 = Label(self._Frame6,text='eth macaddr:')\u000a        self._Label8.pack(side='bottom')\u000a        self._phymacaddr = Entry(self._Frame6,state='disabled'\u000a            ,textvariable=self.phymacaddr)\u000a        self._phymacaddr.pack(side='bottom')\u000a        self._Label7 = Label(self._Frame6,text='phy macaddr:')\u000a        self._Label7.pack(side='bottom')\u000a        self._ethipaddr = Entry(self._Frame6,state='disabled'\u000a            ,textvariable=self.ethipaddr)\u000a        self._ethipaddr.pack(side='bottom')\u000a        self._Label6 = Label(self._Frame6,text='eth ipaddr:')\u000a        self._Label6.pack(side='bottom')\u000a        self._phyipaddr = Entry(self._Frame6,state='disabled'\u000a            ,textvariable=self.phyipaddr)\u000a        self._phyipaddr.pack(side='bottom')\u000a        self._Label5 = Label(self._Frame6,text='phy ipaddr:')\u000a        self._Label5.pack(side='bottom')\u000a        self._ataddr = Entry(self._Frame6,state='disabled'\u000a            ,textvariable=self.ataddr)\u000a        self._ataddr.pack(side='bottom')\u000a        self._Label9 = Label(self._Frame6,text='at addr')\u000a        self._Label9.pack(side='bottom')\u000a        self._Frame1 = Frame(self._Frame2)\u000a        self._Frame1.pack(side='top')\u000a        self._Label10 = Label(self._Frame1,text='at frequency trim:')\u000a        self._Label10.pack(side='top')\u000a        self._Frame10 = Frame(self._Frame2)\u000a        self._Frame10.pack(side='top')\u000a        self._Frame23 = Frame(self._Frame2,background='#c0c0c0',borderwidth='10')\u000a        self._Frame23.pack(side='top')\u000a        self._Frame22 = Frame(self._Frame2)\u000a        self._Frame22.pack(side='top')\u000a        self._btn_lamp_wdg_0 = Button(self._Frame22\u000a            ,command=self._on__btn_adf_wdg_0_command,state='disabled'\u000a            ,text='lamp wdg 0')\u000a        self._btn_lamp_wdg_0.pack(side='left')\u000a        self._Frame29 = Frame(self._Frame4)\u000a        self._Frame29.pack(side='top')\u000a        self._Label4 = Label(self._Frame29,text='\u0412\u0432\u0435\u0434\u0438\u0442\u0435 \u043a\u043e\u043c\u0430\u043d\u0434\u0443 \u0434\u043b\u044f \u043e\u0442\u043f\u0440\u0430\u0432\u043a\u0438:')\u000a        self._Label4.pack(side='bottom')\u000a        self._Frame19 = Frame(self._Frame4)\u000a        self._Frame19.pack(side='top')\u000a        self._Frame14 = Frame(self._Frame4)\u000a        self._Frame14.pack(side='top')\u000a        self._label_Rcvd_Text = Label(self._Frame14\u000a            ,text='\u041f\u0440\u0438\u043d\u044f\u0442\u043e \u043e\u0442 \u0443\u0441\u0442\u0440\u043e\u0439\u0441\u0442\u0432\u0430:')\u000a        self._label_Rcvd_Text.pack(side='top')\u000a        self._ReceivedText = Text(self._Frame14\u000a            ,font=('@Arial Unicode MS', 10, ''),height='35')\u000a        self._ReceivedText.pack(side='top')\u000a        self._Frame9 = Frame(self._Frame4)\u000a        self._Frame9.pack(fill='x',side='top')\u000a        self._btn_dbg0 = Button(self._Frame9,command=self._on__btn_dbg0_command\u000a            ,state='disabled',text='dbg 0')\u000a        self._btn_dbg0.pack(anchor='w',side='left')\u000a        self._btn_dbg1 = Button(self._Frame9,command=self._on__btn_dbg1_command\u000a            ,state='disabled',text='dbg 1')\u000a        self._btn_dbg1.pack(anchor='w',side='left')\u000a        self._Frame28 = Frame(self._Frame4)\u000a        self._Frame28.pack(fill='x',side='top')\u000a        self._btn_ping = Button(self._Frame28,command=self._on__btn_ping_command\u000a            ,state='disabled',text='ping')\u000a        self._btn_ping.pack(side='left')\u000a        self._ipaddr = Entry(self._Frame28,textvariable=self.entry_ipaddr)\u000a        self._ipaddr.pack(side='left')\u000a        self._Frame15 = Frame(self._Frame4)\u000a        self._Frame15.pack(fill='x',side='top')\u000a        self._btn_phyipaddr = Button(self._Frame15\u000a            ,command=self._on__btn_phyipaddr_command,state='disabled'\u000a            ,text='phy ipaddr')\u000a        self._btn_phyipaddr.pack(anchor='w',side='left')\u000a        self._btn_ataddr = Button(self._Frame15\u000a            ,command=self._on__btn_ataddr_command,state='disabled'\u000a            ,text='at addr')\u000a        self._btn_ataddr.pack(side='left')\u000a        self._Frame18 = Frame(self._Frame4)\u000a        self._Frame18.pack(fill='x',side='top')\u000a        self._btn_adf_tst = Button(self._Frame18\u000a            ,command=self._on__btn_adf_tst_command,state='disabled'\u000a            ,text='adf tst')\u000a        self._btn_adf_tst.pack(anchor='w',side='left')\u000a        self._btn_adf_tst_50 = Button(self._Frame18\u000a            ,command=self._on__btn_adf_tst_50_command,state='disabled'\u000a            ,text='adf tst 50')\u000a        self._btn_adf_tst_50.pack(anchor='w',side='left')\u000a        self._Frame16 = Frame(self._Frame4)\u000a        self._Frame16.pack(fill='x',side='top')\u000a        self._btn_at_dst_rt = Button(self._Frame16\u000a            ,command=self._on__btn_at_dst_rt_command,state='disabled'\u000a            ,text='at dst 0xXXXX + rt')\u000a        self._btn_at_dst_rt.pack(anchor='w',side='left')\u000a        self._entry_at_addr = Entry(self._Frame16\u000a            ,textvariable=self.entry_at_addr)\u000a        self._entry_at_addr.pack(side='left')\u000a        self._Frame17 = Frame(self._Frame4)\u000a        self._Frame17.pack(fill='x',side='top')\u000a        self._Label11 = Label(self._Frame17,text='\u041b\u0421-\u04204:')\u000a        self._Label11.pack(side='left')\u000a        self._entry_at_addr_exe = Entry(self._Frame17\u000a            ,textvariable=self.entry_at_addr_exe)\u000a        self._entry_at_addr_exe.pack(side='left')\u000a        self._btn_exe_at_dst_rt = Button(self._Frame17\u000a            ,command=self._on__btn_exe_at_dst_rt_command,state='disabled'\u000a            ,text='exe 0xXXXX at dst 0xXXXX + rt')\u000a        self._btn_exe_at_dst_rt.pack(side='left')\u000a        self._Label12 = Label(self._Frame17,text='\u041c\u0410:')\u000a        self._Label12.pack(side='left')\u000a        self._entry_at_addr_rt = Entry(self._Frame17\u000a            ,textvariable=self.entry_at_addr_rt)\u000a        self._entry_at_addr_rt.pack(side='left')\u000a        self._Frame20 = Frame(self._Frame4)\u000a        self._Frame20.pack(fill='x',side='top')\u000a        self._Label13 = Label(self._Frame20,text='\u0414\u043b\u044f \u043a\u0430\u0441\u0441\u0435\u0442\u044b 1-\u041c-5:')\u000a        self._Label13.pack(side='left')\u000a        self._Frame21 = Frame(self._Frame4)\u000a        self._Frame21.pack(fill='x',side='top')\u000a        self._btn_root = Button(self._Frame21,command=self._on__btn_root_command\u000a            ,state='disabled',text='root')\u000a        self._btn_root.pack(anchor='w',side='left')\u000a        self._btn_talnakh = Button(self._Frame21\u000a            ,command=self._on__btn_tanakh_command,state='disabled'\u000a            ,text='talnakh')\u000a        self._btn_talnakh.pack(side='left')\u000a        self._btn_enter = Button(self._Frame21\u000a            ,command=self._on__btn_enter_command,state='disabled'\u000a            ,text='Enter key')\u000a        self._btn_enter.pack(side='left')\u000a        self._btn_dev_mac = Button(self._Frame21\u000a            ,command=self._on__btn_dev_mac_command,state='disabled'\u000a            ,text='dev mac')\u000a        self._btn_dev_mac.pack(side='left')\u000a        self._entry_dev_mac = Entry(self._Frame21,textvariable=self.dev_mac)\u000a        self._entry_dev_mac.pack(side='left')\u000a        self._btn_dev_req = Button(self._Frame21\u000a            ,command=self._on__btn_dev_req_command,state='disabled'\u000a            ,text='dev req')\u000a        self._btn_dev_req.pack(side='left')\u000a        self._Frame5 = Frame(self._Frame10)\u000a        self._Frame5.pack(side='left')\u000a        self._left = Button(self._Frame5,command=self._on__left_command\u000a            ,state='disabled',text='<-------(left key)--at trim left')\u000a        self._left.pack(side='left')\u000a        self._Frame13 = Frame(self._Frame10)\u000a        self._Frame13.pack(side='left')\u000a        self._right = Button(self._Frame13,command=self._on__right_command\u000a            ,state='disabled',text='at trim right--(right key)------->')\u000a        self._right.pack(side='left')\u000a        self._Frame8 = Frame(self._Frame10)\u000a        self._Frame8.pack(side='left')\u000a        self._ArrowKeysOn = Checkbutton(self._Frame8\u000a            ,text='Arrow keys control on',variable=self.ArrowKeysOn)\u000a        self._ArrowKeysOn.pack(side='left')\u000a        self._Frame25 = Frame(self._Frame23)\u000a        self._Frame25.pack(side='left')\u000a        self._ifbw0 = Radiobutton(self._Frame25,text='ifbw 0 (\u0434\u043b\u044f ADF7021)'\u000a            ,value=0,variable=self.ifbw)\u000a        self._ifbw0.pack(side='top')\u000a        self._ifbw1 = Radiobutton(self._Frame25,text='ifbw 1 (\u0434\u043b\u044f ADF7021-N)'\u000a            ,value=1,variable=self.ifbw)\u000a        self._ifbw1.pack(side='top')\u000a        self._Frame24 = Frame(self._Frame23)\u000a        self._Frame24.pack(side='left')\u000a        self._set_ifbw = Button(self._Frame24,command=self._on__set_ifbw_command\u000a            ,state='disabled',text='Set IFBW')\u000a        self._set_ifbw.pack(side='left')\u000a        self._Frame31 = Frame(self._Frame19)\u000a        self._Frame31.pack(expand='yes',fill='x',side='left')\u000a        self._text_to_send = Entry(self._Frame31,textvariable=self.text_to_send)\u000a        self._text_to_send.pack(side='top')\u000a        self._send = Button(self._Frame31,command=self._on__send_command\u000a            ,state='disabled',text='\u041e\u0442\u043f\u0440\u0430\u0432\u0438\u0442\u044c \u043d\u0430 \u0443\u0441\u0442\u0440\u043e\u0439\u0441\u0442\u0432\u043e \u043a\u043e\u043c\u0430\u043d\u0434\u0443')\u000a        self._send.pack(fill='x',side='top')\u000a        self._Frame30 = Frame(self._Frame19)\u000a        self._Frame30.pack(expand='yes',fill='x',side='left')\u000a        self._text_to_send2 = Entry(self._Frame30\u000a            ,textvariable=self.text_to_send2)\u000a        self._text_to_send2.pack(side='top')\u000a        self._send2 = Button(self._Frame30,command=self._on__send2_command\u000a            ,state='disabled',text='\u041e\u0442\u043f\u0440\u0430\u0432\u0438\u0442\u044c \u043d\u0430 \u0443\u0441\u0442\u0440\u043e\u0439\u0441\u0442\u0432\u043e \u043a\u043e\u043c\u0430\u043d\u0434\u0443')\u000a        self._send2.pack(side='top')\u000a
p88
aV        #\u000a        #Your code here\u000a        #\u000a        \u000a        found = False\u000a \u000a        for i in range(5,64) :\u000a            try :\u000a                port = "COM"+str(i)\u000a                ser = serial.Serial(port)\u000a                ser.close()\u000a                self._ComPortsList.insert(0, port)\u000a                found = True\u000a            except serial.serialutil.SerialException :\u000a                pass\u000a \u000a        if not found :\u000a            mbox.showerror("\u041f\u043e\u0441\u043b\u0435\u0434\u043e\u0432\u0430\u0442\u0435\u043b\u044c\u043d\u044b\u0445 \u043f\u043e\u0440\u0442\u043e\u0432 \u043d\u0435 \u043e\u0431\u043d\u0430\u0440\u0443\u0436\u0435\u043d\u043e")\u000a        \u000a\u000a            \u000a\u000a        \u000a        self.device.set('ma41')\u000a        self.serial_number.set('16001')\u000a        self.ifbw.set(0)\u000a        \u000a\u000a        self.text_to_send.set(str("exe 0x0003 sys info"))\u000a        self.text_to_send2.set(str("exe 7 exe 2 sys info"))\u000a        \u000a        self.entry_ipaddr.set('10.2.1.20')\u000a        self.entry_at_addr.set('0x0007')\u000a        self.entry_at_addr_exe.set('0x202')\u000a        self.entry_at_addr_rt.set('0x104d')\u000a        self.dev_mac.set('12345')\u000a        self.ma45_treshold_patch.set(1)\u000a        \u000a
p89
aS'    #\n    #Start of event handler methods\n    #\n'
p90
aS'\n'
aS'\n    def _on__COM_port_connect_command(self'
p91
aV,Event=None):\u000a        global connected\u000a        try:\u000a            global ser                      \u000a            ser = serial.Serial(self._ComPortsList.get(self._ComPortsList.curselection()),timeout=0.02)\u000a            ser.baudrate = 115200\u000a            connected=1\u000a            self._COM_port_connect.config(state='disabled')\u000a            self._prog_and_increment.config(state="normal")\u000a            self._send.config(state="normal")\u000a            self._send2.config(state="normal")\u000a            self._set_ifbw.config(state="normal")\u000a            self._prog_and_increment.config(state="normal")\u000a            self._left.config(state="normal")\u000a            self._right.config(state="normal")\u000a            self._btn_ping.config(state="normal")\u000a            self._btn_phyipaddr.config(state="normal")\u000a            self._btn_ataddr.config(state="normal")\u000a            self._btn_adf_tst.config(state="normal")            \u000a            self._btn_adf_tst_50.config(state="normal")            \u000a            self._btn_dbg0.config(state="normal")\u000a            self._btn_dbg1.config(state="normal")\u000a            self._btn_at_dst_rt.config(state="normal")\u000a            self._btn_exe_at_dst_rt.config(state="normal")\u000a            self._btn_root.config(state="normal")\u000a            self._btn_talnakh.config(state="normal")\u000a            self._btn_enter.config(state="normal")           \u000a            self._btn_dev_mac.config(state="normal")\u000a            self._btn_dev_req.config(state="normal")            \u000a            self._btn_lamp_wdg_0.config(state="normal")\u000a            self._GasThreshold.config(state="normal")\u000a        except:            \u000a            connected=0\u000a            mbox.showerror("\u041e\u0448\u0438\u0431\u043a\u0430", "\u041d\u0435\u0432\u043e\u0437\u043c\u043e\u0436\u043d\u043e \u043e\u0442\u043a\u0440\u044b\u0442\u044c COM-\u043f\u043e\u0440\u0442")  \u000a            \u000a        \u000a\u000a\u000a
p92
aS'\n    def _on__GasThreshold_command(self'
p93
aV,Event=None):\u000a        ok=1\u000a\u000a        if write_and_verify('at thr alm','0x05','ipaddr')==0:            \u000a           ok=0\u000a           mbox.showerror("\u041e\u0448\u0438\u0431\u043a\u0430","\u041e\u0448\u0438\u0431\u043a\u0430 \u0437\u0430\u043f\u0438\u0441\u0438 at thr alm")\u000a        \u000a        if write_and_verify('at thr gas','0x01','ipaddr')==0:            \u000a           ok=0\u000a           mbox.showerror("\u041e\u0448\u0438\u0431\u043a\u0430","\u041e\u0448\u0438\u0431\u043a\u0430 \u0437\u0430\u043f\u0438\u0441\u0438 at thr gas")\u000a        \u000a        \u000a        pass\u000a
p94
aS'\n    def _on__btn_adf_tst_50_command(self'
p95
aS",Event=None):\n        write_ram('adf tst 50')\n"
p96
aS'\n    def _on__btn_adf_tst_command(self'
p97
aS",Event=None):\n        write_ram('adf tst')\n"
p98
aS'\n    def _on__btn_adf_wdg_0_command(self'
p99
aS',Event=None):\n        lamp_wdg_0()\n'
p100
aS'\n    def _on__btn_at_dst_rt_command(self'
p101
aS",Event=None):\n        write_ram('at dst '+str(self.entry_at_addr.get()))\n        write_ram('rt')\n"
p102
aS'\n    def _on__btn_ataddr_command(self'
p103
aS",Event=None):\n        write_ram('at addr')\n"
p104
aS'\n    def _on__btn_dbg0_command(self'
p105
aS",Event=None):\n        write_ram('dbg 0')\n"
p106
aS'\n    def _on__btn_dbg1_command(self'
p107
aS",Event=None):\n        write_ram('dbg 1')\n"
p108
aS'\n    def _on__btn_dev_mac_command(self'
p109
aS",Event=None):\n        write_ram('dev mac '+str(self.dev_mac.get()))\n"
p110
aS'\n    def _on__btn_dev_req_command(self'
p111
aS",Event=None):\n        write_ram('dev req')\n"
p112
aS'\n    def _on__btn_enter_command(self'
p113
aS",Event=None):\n        write_ram('')\n"
p114
aS'\n    def _on__btn_exe_at_dst_rt_command(self'
p115
aS",Event=None):\n        write_ram('exe '+self.entry_at_addr_exe.get()+' at dst '+self.entry_at_addr_rt.get())\n        write_ram('exe '+self.entry_at_addr_exe.get()+' rt')\n"
p116
aS'\n    def _on__btn_phyipaddr_command(self'
p117
aS",Event=None):\n        write_ram('phy ipaddr')\n"
p118
aS'\n    def _on__btn_ping_command(self'
p119
aS",Event=None):\n        write_ram('ping '+str(self.entry_ipaddr.get()))\n"
p120
aS'\n    def _on__btn_root_command(self'
p121
aS",Event=None):\n        write_ram('root')\n"
p122
aS'\n    def _on__btn_tanakh_command(self'
p123
aS",Event=None):\n        write_ram('talnakh')\n"
p124
aS'\n    def _on__left_command(self'
p125
aS',Event=None):\n        global trim\n        if trim <15:\n            trim+=1\n        write_ram_eep("at trim "+str(trim)+\'\\r\')\n'
p126
aS'\n    def _on__prog_and_increment_command(self'
p127
aS",Event=None):\n        setup_ip_mac_etc()\n        ok=1\n        \n        write_ram('exe '+self.ataddr.get()+' sys info');\n        ok=1\n        \n        if ok==1:\n            self.serial_number.set(str(int(self.serial_number.get())+1))\n            if int(self.serial_number.get())%1000>=255:\n               self.serial_number.set(int(self.serial_number.get())+746)\n\n    def _on__prog_and_decrement_command(self,Event=None):\n        setup_ip_mac_etc()\n        ok=1\n        \n        write_ram('exe '+self.ataddr.get()+' sys info');\n        ok=1\n        \n        if ok==1:\n            self.serial_number.set(str(int(self.serial_number.get())-1))\n            if int(self.serial_number.get())%1000<=0:\n               self.serial_number.set(int(self.serial_number.get())-746)        \n        \n"
p128
aS'\n    def _on__right_command(self'
p129
aS',Event=None):\n        global trim\n        if trim >0:\n            trim-=1\n        write_ram_eep("at trim "+str(trim)+\'\\r\')\n'
p130
aS'\n    def _on__send2_command(self'
p131
aS",Event=None):\n        ser.write(self._text_to_send2.get()+'\\r')\n"
p132
aS'\n    def _on__send_command(self'
p133
aS",Event=None):\n        ser.write(self._text_to_send.get()+'\\r')\n        \n\n"
p134
aS'\n    def _on__set_ifbw_command(self'
p135
aS",Event=None):        \n        write_ram_eep('adf ifbw '+str(self.ifbw.get()))\n        \n\n"
p136
aS'\n    def _set_serial(self'
p137
aS",Event=None):\n        if self.device.get()=='ma41':\n            self.serial_number.set('16001')\n            \n        if self.device.get()=='ma45':\n            self.serial_number.set('16001')         \n\n        if self.device.get()=='lsr4':\n            self.serial_number.set('1008')\n\n        if self.device.get()=='lse4':\n            self.serial_number.set('1008')\n      \n        if self.device.get()=='1m500':\n            self.serial_number.set('1008')\n            \n        setup_ip_mac_etc()\n\n\n      \n"
p138
aS'    #\n    #Start of non-Rapyd user code\n    #\n'
p139
aS''
asg7
I0
sg45
I9053823
ssg29
(lp140
(dp141
S'ModuleName'
p142
S'Tkinter'
p143
sg51
g52
sS'WidgetName'
p144
S'Frame'
p145
sS'PackOptions'
p146
(lp147
sg24
(I0
tp148
sS'XY'
p149
(I0
I0
tp150
sS'Bindings'
p151
(lp152
sS'Options'
p153
(lp154
sa(dp155
g142
S'Tkinter'
p156
sg51
S'_1M500'
p157
sg144
S'Radiobutton'
p158
sg146
(lp159
(dp160
g51
S'anchor'
p161
sS'Value'
p162
S'w'
sasg24
Nsg149
(lp163
I1850
aI2600
asg151
(lp164
sg153
(lp165
(dp166
g51
S'text'
p167
sg162
V\u041a\u0430\u0441\u0441\u0435\u0442\u0430 1-M-500
p168
sS'Extra'
p169
Nsa(dp170
g51
S'variable'
p171
sg162
S'device'
p172
sg169
S'is.as'
p173
sa(dp174
g51
S'value'
p175
sg162
S'1m500'
p176
sg169
Nsa(dp177
g51
S'command'
p178
sg162
S'_set_serial'
p179
sg169
I1
sa(dp180
g51
S'justify'
p181
sg162
S'left'
p182
sg169
Nsasa(dp183
g142
S'Tkinter'
p184
sg51
S'_ArrowKeysOn'
p185
sg144
S'Checkbutton'
p186
sg146
(lp187
sg24
Nsg149
(lp188
I1570
aI7545
asg151
(lp189
sg153
(lp190
(dp191
g51
S'text'
p192
sg162
S'Arrow keys control on'
p193
sg169
Nsa(dp194
g51
S'variable'
p195
sg162
S'ArrowKeysOn'
p196
sg169
S'sif.ai'
p197
sasa(dp198
g142
S'Tkinter'
p199
sg51
S'_COM_port_connect'
p200
sg144
S'Button'
p201
sg146
(lp202
sg24
Nsg149
(lp203
I1862
aI931
asg151
(lp204
sg153
(lp205
(dp206
g51
S'text'
p207
sg162
V\u041e\u0442\u043a\u0440\u044b\u0442\u044c COM-\u043f\u043e\u0440\u0442
p208
sg169
Nsa(dp209
g51
S'command'
p210
sg162
S'_on__COM_port_connect_command'
p211
sg169
I1
sasa(dp212
g142
S'Tkinter'
p213
sg51
S'_ComPortsList'
p214
sg144
S'Listbox'
p215
sg146
(lp216
sg24
Nsg149
(lp217
I1850
aI593
asg151
(lp218
sg153
(lp219
(dp220
g51
S'selectmode'
p221
sg162
S'single'
p222
sg169
Nsasa(dp223
g142
S'Tkinter'
p224
sg51
S'_Frame1'
p225
sg144
S'Frame'
p226
sg146
(lp227
sg24
(I0
I0
I6
tp228
sg149
g150
sg151
(lp229
sg153
(lp230
sa(dp231
g142
g224
sg51
S'_Frame10'
p232
sg144
g226
sg146
(lp233
sg24
(I0
I0
I7
tp234
sg149
g150
sg151
(lp235
sg153
(lp236
sa(dp237
g142
S'Tkinter'
p238
sg51
S'_Frame11'
p239
sg144
S'Frame'
p240
sg146
(lp241
(dp242
g51
S'fill'
p243
sg162
S'x'
sasg24
(I0
I0
I3
tp244
sg149
g150
sg151
(lp245
sg153
(lp246
sa(dp247
g142
S'Tkinter'
p248
sg51
S'_Frame12'
p249
sg144
S'Frame'
p250
sg146
(lp251
(dp252
g51
g243
sg162
S'x'
sasg24
(I0
I0
I4
tp253
sg149
g150
sg151
(lp254
sg153
(lp255
sa(dp256
g142
g224
sg51
S'_Frame13'
p257
sg144
g226
sg146
(lp258
sg24
(I0
I0
I7
I1
tp259
sg149
g150
sg151
(lp260
sg153
(lp261
sa(dp262
g142
S'Tkinter'
p263
sg51
S'_Frame14'
p264
sg144
S'Frame'
p265
sg146
(lp266
sg24
(I0
I1
I2
tp267
sg149
g150
sg151
(lp268
sg153
(lp269
sa(dp270
g142
g263
sg51
S'_Frame15'
p271
sg144
g265
sg146
(lp272
(dp273
g51
g243
sg162
S'x'
sasg24
(I0
I1
I5
tp274
sg149
g150
sg151
(lp275
sg153
(lp276
sa(dp277
g142
S'Tkinter'
p278
sg51
S'_Frame16'
p279
sg144
S'Frame'
p280
sg146
(lp281
(dp282
g51
g243
sg162
S'x'
sasg24
(I0
I1
I7
tp283
sg149
g150
sg151
(lp284
sg153
(lp285
sa(dp286
g142
g278
sg51
S'_Frame17'
p287
sg144
g280
sg146
(lp288
(dp289
g51
g243
sg162
S'x'
sasg24
(I0
I1
I8
tp290
sg149
g150
sg151
(lp291
sg153
(lp292
sa(dp293
g142
g278
sg51
S'_Frame18'
p294
sg144
g280
sg146
(lp295
(dp296
g51
g243
sg162
S'x'
sasg24
(I0
I1
I6
tp297
sg149
g150
sg151
(lp298
sg153
(lp299
sa(dp300
g142
S'Tkinter'
p301
sg51
S'_Frame19'
p302
sg144
S'Frame'
p303
sg146
(lp304
sg24
(I0
I1
I1
tp305
sg149
g150
sg151
(lp306
sg153
(lp307
sa(dp308
g142
S'Tkinter'
p309
sg51
S'_Frame2'
p310
sg144
S'Frame'
p311
sg146
(lp312
(dp313
g51
g243
sg162
S'y'
sasg24
(I0
I0
tp314
sg149
g150
sg151
(lp315
sg153
(lp316
sa(dp317
g142
g278
sg51
S'_Frame20'
p318
sg144
g280
sg146
(lp319
(dp320
g51
g243
sg162
S'x'
sasg24
(I0
I1
I9
tp321
sg149
g150
sg151
(lp322
sg153
(lp323
sa(dp324
g142
S'Tkinter'
p325
sg51
S'_Frame21'
p326
sg144
S'Frame'
p327
sg146
(lp328
(dp329
g51
g243
sg162
S'x'
sasg24
(I0
I1
I10
tp330
sg149
g150
sg151
(lp331
sg153
(lp332
sa(dp333
g142
S'Tkinter'
p334
sg51
S'_Frame22'
p335
sg144
S'Frame'
p336
sg146
(lp337
sg24
(I0
I0
I9
tp338
sg149
g150
sg151
(lp339
sg153
(lp340
sa(dp341
g142
g334
sg51
S'_Frame23'
p342
sg144
g336
sg146
(lp343
sg24
(I0
I0
I8
tp344
sg149
g150
sg151
(lp345
sg153
(lp346
(dp347
g51
S'borderwidth'
p348
sg162
S'n:10'
p349
sg169
Nsa(dp350
g51
S'background'
p351
sg162
S'c:#c0c0c0'
p352
sg169
Nsasa(dp353
g142
g334
sg51
S'_Frame24'
p354
sg144
g336
sg146
(lp355
sg24
(I0
I0
I8
I1
tp356
sg149
g150
sg151
(lp357
sg153
(lp358
sa(dp359
g142
g334
sg51
S'_Frame25'
p360
sg144
g336
sg146
(lp361
sg24
(I0
I0
I8
I0
tp362
sg149
g150
sg151
(lp363
sg153
(lp364
sa(dp365
g142
g248
sg51
S'_Frame26'
p366
sg144
g250
sg146
(lp367
(dp368
g51
g243
sg162
S'x'
sasg24
(I0
I0
I1
tp369
sg149
g150
sg151
(lp370
sg153
(lp371
sa(dp372
g142
g248
sg51
S'_Frame27'
p373
sg144
g250
sg146
(lp374
sg24
(I0
I0
I0
tp375
sg149
g150
sg151
(lp376
sg153
(lp377
sa(dp378
g142
S'Tkinter'
p379
sg51
S'_Frame28'
p380
sg144
S'Frame'
p381
sg146
(lp382
(dp383
g51
g243
sg162
S'x'
sasg24
(I0
I1
I4
tp384
sg149
g150
sg151
(lp385
sg153
(lp386
sa(dp387
g142
g301
sg51
S'_Frame29'
p388
sg144
g303
sg146
(lp389
sg24
(I0
I1
I0
tp390
sg149
g150
sg151
(lp391
sg153
(lp392
sa(dp393
g142
S'Tkinter'
p394
sg51
S'_Frame3'
p395
sg144
S'Frame'
p396
sg146
(lp397
sg24
(I0
I2
tp398
sg149
g150
sg151
(lp399
sg153
(lp400
sa(dp401
g142
g301
sg51
S'_Frame30'
p402
sg144
g303
sg146
(lp403
(dp404
g51
S'expand'
p405
sg162
S'yes'
p406
sa(dp407
g51
g243
sg162
S'x'
sasg24
(I0
I1
I1
I1
tp408
sg149
g150
sg151
(lp409
sg153
(lp410
sa(dp411
g142
g301
sg51
S'_Frame31'
p412
sg144
g303
sg146
(lp413
(dp414
g51
g405
sg162
g406
sa(dp415
g51
g243
sg162
S'x'
sasg24
(I0
I1
I1
I0
tp416
sg149
g150
sg151
(lp417
sg153
(lp418
sa(dp419
g142
g394
sg51
S'_Frame4'
p420
sg144
g396
sg146
(lp421
(dp422
g51
g243
sg162
S'y'
sasg24
(I0
I1
tp423
sg149
g150
sg151
(lp424
sg153
(lp425
(dp426
g51
g351
sg162
S'c:#dbdbdb'
p427
sg169
Nsasa(dp428
g142
g224
sg51
S'_Frame5'
p429
sg144
g226
sg146
(lp430
sg24
(I0
I0
I7
I0
tp431
sg149
g150
sg151
(lp432
sg153
(lp433
sa(dp434
g142
g224
sg51
S'_Frame6'
p435
sg144
g226
sg146
(lp436
sg24
(I0
I0
I5
tp437
sg149
g150
sg151
(lp438
sg153
(lp439
sa(dp440
g142
g238
sg51
S'_Frame7'
p441
sg144
g240
sg146
(lp442
(dp443
g51
g243
sg162
S'x'
sasg24
(I0
I0
I2
tp444
sg149
g150
sg151
(lp445
sg153
(lp446
sa(dp447
g142
S'Tkinter'
p448
sg51
S'_Frame8'
p449
sg144
S'Frame'
p450
sg146
(lp451
sg24
(I0
I0
I7
I2
tp452
sg149
g150
sg151
(lp453
sg153
(lp454
sa(dp455
g142
g263
sg51
S'_Frame9'
p456
sg144
g265
sg146
(lp457
(dp458
g51
g243
sg162
S'x'
sasg24
(I0
I1
I3
tp459
sg149
g150
sg151
(lp460
sg153
(lp461
sa(dp462
g142
S'Tkinter'
p463
sg51
S'_GasThreshold'
p464
sg144
S'Button'
p465
sg146
(lp466
sg24
Nsg149
(lp467
I1862
aI3700
asg151
(lp468
sg153
(lp469
(dp470
g51
g207
sg162
S'Write Gas Threshold'
p471
sg169
Nsa(dp472
g51
S'state'
p473
sg162
S'disabled'
p474
sg169
Nsa(dp475
g51
g210
sg162
S'_on__GasThreshold_command'
p476
sg169
I1
sasa(dp477
g142
g156
sg51
S'_LSE4'
p478
sg144
g158
sg146
(lp479
(dp480
g51
g161
sg162
S'w'
sasg24
Nsg149
(lp481
I1862
aI2382
asg151
(lp482
sg153
(lp483
(dp484
g51
g167
sg162
V\u0421\u0447\u0438\u0442\u044b\u0432\u0430\u0442\u0435\u043b\u044c \u041b\u0421-\u04154
p485
sg169
Nsa(dp486
g51
g171
sg162
S'device'
p487
sg169
S'is.as'
p488
sa(dp489
g51
g175
sg162
S'lse4'
p490
sg169
Nsa(dp491
g51
g178
sg162
g179
sg169
I1
sa(dp492
g51
g181
sg162
g182
sg169
Nsasa(dp493
g142
g156
sg51
S'_LSR4'
p494
sg144
g158
sg146
(lp495
(dp496
g51
g161
sg162
S'w'
sasg24
Nsg149
(lp497
I1862
aI2164
asg151
(lp498
sg153
(lp499
(dp500
g51
g167
sg162
V\u0421\u0447\u0438\u0442\u044b\u0432\u0430\u0442\u0435\u043b\u044c \u041b\u0421-\u04204
p501
sg169
Nsa(dp502
g51
g171
sg162
S'device'
p503
sg169
S'is.as'
p504
sa(dp505
g51
g175
sg162
S'lsr4'
p506
sg169
Nsa(dp507
g51
g178
sg162
g179
sg169
I1
sa(dp508
g51
g181
sg162
g182
sg169
Nsasa(dp509
g142
g199
sg51
S'_Label1'
p510
sg144
S'Label'
p511
sg146
(lp512
sg24
Nsg149
(lp513
I1862
aI206
asg151
(lp514
sg153
(lp515
(dp516
g51
S'text'
p517
sg162
V\u0412\u044b\u0431\u0435\u0440\u0435\u0442\u0435 COM-\u043f\u043e\u0440\u0442
p518
sg169
Nsasa(dp519
g142
S'Tkinter'
p520
sg51
S'_Label10'
p521
sg144
S'Label'
p522
sg146
(lp523
sg24
Nsg149
(lp524
I1351
aI7050
asg151
(lp525
sg153
(lp526
(dp527
g51
g517
sg162
S'at frequency trim:'
p528
sg169
Nsasa(dp529
g142
S'Tkinter'
p530
sg51
S'_Label11'
p531
sg144
S'Label'
p532
sg146
(lp533
sg24
Nsg149
(lp534
I3500
aI8767
asg151
(lp535
sg153
(lp536
(dp537
g51
g517
sg162
V\u041b\u0421-\u04204:
p538
sg169
Nsasa(dp539
g142
g530
sg51
S'_Label12'
p540
sg144
g532
sg146
(lp541
sg24
Nsg149
(lp542
I4674
aI8815
asg151
(lp543
sg153
(lp544
(dp545
g51
g517
sg162
V\u041c\u0410:
p546
sg169
Nsasa(dp547
g142
S'Tkinter'
p548
sg51
S'_Label13'
p549
sg144
S'Label'
p550
sg146
(lp551
sg24
Nsg149
(lp552
I3360
aI9154
asg151
(lp553
sg153
(lp554
(dp555
g51
g517
sg162
V\u0414\u043b\u044f \u043a\u0430\u0441\u0441\u0435\u0442\u044b 1-\u041c-5:
p556
sg169
Nsasa(dp557
g142
S'Tkinter'
p558
sg51
S'_Label2'
p559
sg144
S'Label'
p560
sg146
(lp561
sg24
Nsg149
(lp562
I1850
aI2878
asg151
(lp563
sg153
(lp564
(dp565
g51
g517
sg162
V\u0421\u0435\u0440\u0438\u0439\u043d\u044b\u0439 \u043d\u043e\u043c\u0435\u0440:
p566
sg169
Nsasa(dp567
g142
S'Tkinter'
p568
sg51
S'_Label3'
p569
sg144
S'Label'
p570
sg146
(lp571
(dp572
g51
g161
sg162
S'w'
sasg24
Nsg149
(lp573
I341
aI1221
asg151
(lp574
sg153
(lp575
(dp576
g51
g517
sg162
V\u0412\u044b\u0431\u0435\u0440\u0435\u0442\u0435 \u0443\u0441\u0442\u0440\u043e\u0439\u0441\u0442\u0432\u043e:
p577
sg169
Nsa(dp578
g51
S'justify'
p579
sg162
g182
sg169
Nsasa(dp580
g142
g568
sg51
S'_Label4'
p581
sg144
g570
sg146
(lp582
sg24
Nsg149
(lp583
I4680
aI1330
asg151
(lp584
sg153
(lp585
(dp586
g51
g517
sg162
V\u0412\u0432\u0435\u0434\u0438\u0442\u0435 \u043a\u043e\u043c\u0430\u043d\u0434\u0443 \u0434\u043b\u044f \u043e\u0442\u043f\u0440\u0430\u0432\u043a\u0438:
p587
sg169
Nsasa(dp588
g142
g568
sg51
S'_Label5'
p589
sg144
g570
sg146
(lp590
sg24
Nsg149
(lp591
I1850
aI4631
asg151
(lp592
sg153
(lp593
(dp594
g51
g517
sg162
S'phy ipaddr:'
p595
sg169
Nsasa(dp596
g142
g568
sg51
S'_Label6'
p597
sg144
g570
sg146
(lp598
sg24
Nsg149
(lp599
I1850
aI5320
asg151
(lp600
sg153
(lp601
(dp602
g51
g517
sg162
S'eth ipaddr:'
p603
sg169
Nsasa(dp604
g142
g568
sg51
S'_Label7'
p605
sg144
g570
sg146
(lp606
sg24
Nsg149
(lp607
I1850
aI5889
asg151
(lp608
sg153
(lp609
(dp610
g51
g517
sg162
S'phy macaddr:'
p611
sg169
Nsasa(dp612
g142
g568
sg51
S'_Label8'
p613
sg144
g570
sg146
(lp614
sg24
Nsg149
(lp615
I1856
aI6360
asg151
(lp616
sg153
(lp617
(dp618
g51
g517
sg162
S'eth macaddr:'
p619
sg169
Nsasa(dp620
g142
S'Tkinter'
p621
sg51
S'_Label9'
p622
sg144
S'Label'
p623
sg146
(lp624
sg24
Nsg149
(lp625
I1850
aI4075
asg151
(lp626
sg153
(lp627
(dp628
g51
g517
sg162
S'at addr'
p629
sg169
Nsasa(dp630
g142
g156
sg51
S'_MA41'
p631
sg144
g158
sg146
(lp632
(dp633
g51
g161
sg162
S'w'
sasg24
Nsg149
(lp634
I481
aI1560
asg151
(lp635
sg153
(lp636
(dp637
g51
g167
sg162
V\u041c\u043e\u0434\u0443\u043b\u044c \u041c\u0410-41
p638
sg169
Nsa(dp639
g51
g171
sg162
S'device'
p640
sg169
S'is.as'
p641
sa(dp642
g51
g175
sg162
S'ma41'
p643
sg169
Nsa(dp644
g51
g178
sg162
g179
sg169
I1
sa(dp645
g51
g181
sg162
g182
sg169
Nsasa(dp646
g142
g156
sg51
S'_MA45'
p647
sg144
g158
sg146
(lp648
sg24
Nsg149
(lp649
I201
aI1838
asg151
(lp650
sg153
(lp651
(dp652
g51
g167
sg162
V\u041c\u043e\u0434\u0443\u043b\u044c \u041c\u0410-45
p653
sg169
Nsa(dp654
g51
g171
sg162
S'device'
p655
sg169
S'is.as'
p656
sa(dp657
g51
g175
sg162
S'ma45'
p658
sg169
Nsa(dp659
g51
g178
sg162
g179
sg169
I1
sasa(dp660
g142
g199
sg51
S'_ReceivedText'
p661
sg144
S'Text'
p662
sg146
(lp663
sg24
Nsg149
(lp664
I5161
aI5018
asg151
(lp665
sg153
(lp666
(dp667
g51
S'height'
p668
sg162
S'n:35'
p669
sg169
Nsa(dp670
g51
S'font'
p671
sg162
(S'@Arial Unicode MS'
I10
S''
tp672
sg169
Nsasa(dp673
g142
g621
sg51
S'_ataddr'
p674
sg144
S'Entry'
p675
sg146
(lp676
sg24
Nsg149
(lp677
I1856
aI4365
asg151
(lp678
sg153
(lp679
(dp680
g51
S'state'
p681
sg162
S'disabled'
p682
sg169
Nsa(dp683
g51
S'textvariable'
p684
sg162
S'ataddr'
p685
sg169
S's.as'
p686
sasa(dp687
g142
S'Tkinter'
p688
sg51
S'_btn_adf_tst'
p689
sg144
S'Button'
p690
sg146
(lp691
(dp692
g51
g161
sg162
S'w'
sasg24
Nsg149
(lp693
I3737
aI7074
asg151
(lp694
sg153
(lp695
(dp696
g51
g207
sg162
S'adf tst'
p697
sg169
Nsa(dp698
g51
g473
sg162
S'disabled'
p699
sg169
Nsa(dp700
g51
g210
sg162
S'_on__btn_adf_tst_command'
p701
sg169
I1
sasa(dp702
g142
g688
sg51
S'_btn_adf_tst_50'
p703
sg144
g690
sg146
(lp704
(dp705
g51
g161
sg162
S'w'
sasg24
Nsg149
(lp706
I4017
aI7098
asg151
(lp707
sg153
(lp708
(dp709
g51
g207
sg162
S'adf tst 50'
p710
sg169
Nsa(dp711
g51
g473
sg162
g699
sg169
Nsa(dp712
g51
g210
sg162
S'_on__btn_adf_tst_50_command'
p713
sg169
I1
sasa(dp714
g142
g688
sg51
S'_btn_at_dst_rt'
p715
sg144
g690
sg146
(lp716
(dp717
g51
g161
sg162
S'w'
sasg24
Nsg149
(lp718
I3506
aI8319
asg151
(lp719
sg153
(lp720
(dp721
g51
g207
sg162
S'at dst 0xXXXX + rt'
p722
sg169
Nsa(dp723
g51
g473
sg162
g699
sg169
Nsa(dp724
g51
g210
sg162
S'_on__btn_at_dst_rt_command'
p725
sg169
I1
sasa(dp726
g142
g530
sg51
S'_btn_ataddr'
p727
sg144
S'Button'
p728
sg146
(lp729
sg24
Nsg149
(lp730
I4297
aI6687
asg151
(lp731
sg153
(lp732
(dp733
g51
g207
sg162
S'at addr'
p734
sg169
Nsa(dp735
g51
g473
sg162
S'disabled'
p736
sg169
Nsa(dp737
g51
g210
sg162
S'_on__btn_ataddr_command'
p738
sg169
I1
sasa(dp739
g142
g688
sg51
S'_btn_dbg0'
p740
sg144
g690
sg146
(lp741
(dp742
g51
g161
sg162
S'w'
sasg24
Nsg149
(lp743
I3950
aI5707
asg151
(lp744
sg153
(lp745
(dp746
g51
g207
sg162
S'dbg 0'
p747
sg169
Nsa(dp748
g51
g473
sg162
g699
sg169
Nsa(dp749
g51
g210
sg162
S'_on__btn_dbg0_command'
p750
sg169
I1
sasa(dp751
g142
g688
sg51
S'_btn_dbg1'
p752
sg144
g690
sg146
(lp753
(dp754
g51
g161
sg162
S'w'
sasg24
Nsg149
(lp755
I4382
aI5707
asg151
(lp756
sg153
(lp757
(dp758
g51
g207
sg162
S'dbg 1'
p759
sg169
Nsa(dp760
g51
g473
sg162
g699
sg169
Nsa(dp761
g51
g210
sg162
S'_on__btn_dbg1_command'
p762
sg169
I1
sasa(dp763
g142
g548
sg51
S'_btn_dev_mac'
p764
sg144
S'Button'
p765
sg146
(lp766
sg24
Nsg149
(lp767
I4066
aI9528
asg151
(lp768
sg153
(lp769
(dp770
g51
g207
sg162
S'dev mac'
p771
sg169
Nsa(dp772
g51
g473
sg162
S'disabled'
p773
sg169
Nsa(dp774
g51
g210
sg162
S'_on__btn_dev_mac_command'
p775
sg169
I1
sasa(dp776
g142
g548
sg51
S'_btn_dev_req'
p777
sg144
g765
sg146
(lp778
sg24
Nsg149
(lp779
I4674
aI9504
asg151
(lp780
sg153
(lp781
(dp782
g51
g207
sg162
S'dev req'
p783
sg169
Nsa(dp784
g51
g473
sg162
g773
sg169
Nsa(dp785
g51
g210
sg162
S'_on__btn_dev_req_command'
p786
sg169
I1
sasa(dp787
g142
g548
sg51
S'_btn_enter'
p788
sg144
g765
sg146
(lp789
sg24
Nsg149
(lp790
I3822
aI9565
asg151
(lp791
sg153
(lp792
(dp793
g51
g207
sg162
S'Enter key'
p794
sg169
Nsa(dp795
g51
g473
sg162
g773
sg169
Nsa(dp796
g51
g210
sg162
S'_on__btn_enter_command'
p797
sg169
I1
sasa(dp798
g142
g688
sg51
S'_btn_exe_at_dst_rt'
p799
sg144
g690
sg146
(lp800
sg24
Nsg149
(lp801
I4358
aI8815
asg151
(lp802
sg153
(lp803
(dp804
g51
g207
sg162
S'exe 0xXXXX at dst 0xXXXX + rt'
p805
sg169
Nsa(dp806
g51
g473
sg162
g699
sg169
Nsa(dp807
g51
g210
sg162
S'_on__btn_exe_at_dst_rt_command'
p808
sg169
I1
sasa(dp809
g142
S'Tkinter'
p810
sg51
S'_btn_lamp_wdg_0'
p811
sg144
S'Button'
p812
sg146
(lp813
sg24
Nsg149
(lp814
I414
aI9093
asg151
(lp815
sg153
(lp816
(dp817
g51
g207
sg162
S'lamp wdg 0'
p818
sg169
Nsa(dp819
g51
g473
sg162
S'disabled'
p820
sg169
Nsa(dp821
g51
g210
sg162
S'_on__btn_adf_wdg_0_command'
p822
sg169
I1
sasa(dp823
g142
S'Tkinter'
p824
sg51
S'_btn_phyipaddr'
p825
sg144
S'Button'
p826
sg146
(lp827
(dp828
g51
g161
sg162
S'w'
sasg24
Nsg149
(lp829
I3974
aI6699
asg151
(lp830
sg153
(lp831
(dp832
g51
g207
sg162
S'phy ipaddr'
p833
sg169
Nsa(dp834
g51
g473
sg162
S'disabled'
p835
sg169
Nsa(dp836
g51
g210
sg162
S'_on__btn_phyipaddr_command'
p837
sg169
I1
sasa(dp838
g142
g824
sg51
S'_btn_ping'
p839
sg144
g826
sg146
(lp840
sg24
Nsg149
(lp841
I3956
aI6227
asg151
(lp842
sg153
(lp843
(dp844
g51
g207
sg162
S'ping'
p845
sg169
Nsa(dp846
g51
g473
sg162
g835
sg169
Nsa(dp847
g51
g210
sg162
S'_on__btn_ping_command'
p848
sg169
I1
sasa(dp849
g142
g548
sg51
S'_btn_root'
p850
sg144
g765
sg146
(lp851
(dp852
g51
g161
sg162
S'w'
sasg24
Nsg149
(lp853
I3256
aI9553
asg151
(lp854
sg153
(lp855
(dp856
g51
g207
sg162
S'root'
p857
sg169
Nsa(dp858
g51
g473
sg162
g773
sg169
Nsa(dp859
g51
g210
sg162
S'_on__btn_root_command'
p860
sg169
I1
sasa(dp861
g142
g548
sg51
S'_btn_talnakh'
p862
sg144
g765
sg146
(lp863
sg24
Nsg149
(lp864
I3524
aI9565
asg151
(lp865
sg153
(lp866
(dp867
g51
g207
sg162
S'talnakh'
p868
sg169
Nsa(dp869
g51
g473
sg162
g773
sg169
Nsa(dp870
g51
g210
sg162
S'_on__btn_tanakh_command'
p871
sg169
I1
sasa(dp872
g142
g688
sg51
S'_entry_at_addr'
p873
sg144
S'Entry'
p874
sg146
(lp875
sg24
Nsg149
(lp876
I4090
aI8259
asg151
(lp877
sg153
(lp878
(dp879
g51
g684
sg162
S'entry_at_addr'
p880
sg169
S's.as'
p881
sasa(dp882
g142
g688
sg51
S'_entry_at_addr_exe'
p883
sg144
g874
sg146
(lp884
sg24
Nsg149
(lp885
I3834
aI8779
asg151
(lp886
sg153
(lp887
(dp888
g51
g684
sg162
S'entry_at_addr_exe'
p889
sg169
S's.as'
p890
sasa(dp891
g142
g688
sg51
S'_entry_at_addr_rt'
p892
sg144
g874
sg146
(lp893
sg24
Nsg149
(lp894
I4960
aI8815
asg151
(lp895
sg153
(lp896
(dp897
g51
g684
sg162
S'entry_at_addr_rt'
p898
sg169
S's.as'
p899
sasa(dp900
g142
g548
sg51
S'_entry_dev_mac'
p901
sg144
S'Entry'
p902
sg146
(lp903
sg24
Nsg149
(lp904
I4364
aI9541
asg151
(lp905
sg153
(lp906
(dp907
g51
g684
sg162
S'dev_mac'
p908
sg169
S's.as'
p909
sasa(dp910
g142
g568
sg51
S'_ethipaddr'
p911
sg144
S'Entry'
p912
sg146
(lp913
sg24
Nsg149
(lp914
I1856
aI5635
asg151
(lp915
sg153
(lp916
(dp917
g51
g681
sg162
g682
sg169
Nsa(dp918
g51
g684
sg162
S'ethipaddr'
p919
sg169
S's.as'
p920
sasa(dp921
g142
g568
sg51
S'_ethmacaddr'
p922
sg144
g912
sg146
(lp923
sg24
Nsg149
(lp924
I1850
aI6638
asg151
(lp925
sg153
(lp926
(dp927
g51
g681
sg162
g682
sg169
Nsa(dp928
g51
g684
sg162
S'ethmacaddr'
p929
sg169
S's.as'
p930
sasa(dp931
g142
S'Tkinter'
p932
sg51
S'_ifbw0'
p933
sg144
S'Radiobutton'
p934
sg146
(lp935
sg24
Nsg149
(lp936
I1339
aI8065
asg151
(lp937
sg153
(lp938
(dp939
g51
g167
sg162
Vifbw 0 (\u0434\u043b\u044f ADF7021)
p940
sg169
Nsa(dp941
g51
g171
sg162
S'ifbw'
p942
sg169
S'is.ai'
p943
sa(dp944
g51
g175
sg162
S'0'
sg169
Nsasa(dp945
g142
g932
sg51
S'_ifbw1'
p946
sg144
g934
sg146
(lp947
sg24
Nsg149
(lp948
I1327
aI8368
asg151
(lp949
sg153
(lp950
(dp951
g51
g167
sg162
Vifbw 1 (\u0434\u043b\u044f ADF7021-N)
p952
sg169
Nsa(dp953
g51
g171
sg162
S'ifbw'
p954
sg169
S'is.ai'
p955
sa(dp956
g51
g175
sg162
S'1'
sg169
Nsasa(dp957
g142
g824
sg51
S'_ipaddr'
p958
sg144
S'Entry'
p959
sg146
(lp960
sg24
Nsg149
(lp961
I4315
aI6227
asg151
(lp962
sg153
(lp963
(dp964
g51
g684
sg162
S'entry_ipaddr'
p965
sg169
S's.as'
p966
sasa(dp967
g142
g199
sg51
S'_label_Rcvd_Text'
p968
sg144
g511
sg146
(lp969
sg24
Nsg149
(lp970
I5192
aI4450
asg151
(lp971
sg153
(lp972
(dp973
g51
g517
sg162
V\u041f\u0440\u0438\u043d\u044f\u0442\u043e \u043e\u0442 \u0443\u0441\u0442\u0440\u043e\u0439\u0441\u0442\u0432\u0430:
p974
sg169
Nsasa(dp975
g142
g520
sg51
S'_left'
p976
sg144
S'Button'
p977
sg146
(lp978
sg24
Nsg149
(lp979
I219
aI7533
asg151
(lp980
sg153
(lp981
(dp982
g51
g207
sg162
S'<-------(left key)--at trim left'
p983
sg169
Nsa(dp984
g51
g473
sg162
S'disabled'
p985
sg169
Nsa(dp986
g51
g210
sg162
S'_on__left_command'
p987
sg169
I1
sasa(dp988
g142
S'Tkinter'
p989
sg51
S'_ma45_treshold_patch'
p990
sg144
S'Checkbutton'
p991
sg146
(lp992
sg24
Nsg149
(lp993
I998
aI1826
asg151
(lp994
sg153
(lp995
(dp996
g51
g192
sg162
S'MA-45 patch'
p997
sg169
Nsa(dp998
g51
S'state'
p999
sg162
S'disabled'
p1000
sg169
Nsa(dp1001
g51
g195
sg162
S'ma45_treshold_patch'
p1002
sg169
S'sif.ai'
p1003
sasa(dp1004
g142
g568
sg51
S'_phyipaddr'
p1005
sg144
g912
sg146
(lp1006
sg24
Nsg149
(lp1007
I1856
aI4970
asg151
(lp1008
sg153
(lp1009
(dp1010
g51
g681
sg162
g682
sg169
Nsa(dp1011
g51
g684
sg162
S'phyipaddr'
p1012
sg169
S's.as'
p1013
sasa(dp1014
g142
g568
sg51
S'_phymacaddr'
p1015
sg144
g912
sg146
(lp1016
sg24
Nsg149
(lp1017
I1850
aI6143
asg151
(lp1018
sg153
(lp1019
(dp1020
g51
g681
sg162
g682
sg169
Nsa(dp1021
g51
g684
sg162
S'phymacaddr'
p1022
sg169
S's.as'
p1023
sasa(dp1024
g142
g199
sg51
g53
sg144
g201
sg146
(lp1025
sg24
Nsg149
(lp1026
I1875
aI3374
asg151
(lp1027
sg153
(lp1028
(dp1029
g51
g207
sg162
S'TEST (up key)'
p1030
sg169
Nsa(dp1031
g51
g473
sg162
S'disabled'
p1032
sg169
Nsa(dp1033
g51
g210
sg162
S'_on__prog_and_increment_command'
p1034
sg169
I1
sasa(dp1035
g142
g520
sg51
S'_right'
p1036
sg144
g977
sg146
(lp1037
sg24
Nsg149
(lp1038
I755
aI7582
asg151
(lp1039
sg153
(lp1040
(dp1041
g51
g207
sg162
S'at trim right--(right key)------->'
p1042
sg169
Nsa(dp1043
g51
g473
sg162
g985
sg169
Nsa(dp1044
g51
g210
sg162
S'_on__right_command'
p1045
sg169
I1
sasa(dp1046
g142
g199
sg51
S'_send'
p1047
sg144
g201
sg146
(lp1048
(dp1049
g51
g243
sg162
S'x'
sasg24
Nsg149
(lp1050
I3987
aI2938
asg151
(lp1051
sg153
(lp1052
(dp1053
g51
g207
sg162
V\u041e\u0442\u043f\u0440\u0430\u0432\u0438\u0442\u044c \u043d\u0430 \u0443\u0441\u0442\u0440\u043e\u0439\u0441\u0442\u0432\u043e \u043a\u043e\u043c\u0430\u043d\u0434\u0443
p1054
sg169
Nsa(dp1055
g51
g473
sg162
S'disabled'
p1056
sg169
Nsa(dp1057
g51
g210
sg162
S'_on__send_command'
p1058
sg169
I1
sasa(dp1059
g142
S'Tkinter'
p1060
sg51
S'_send2'
p1061
sg144
S'Button'
p1062
sg146
(lp1063
sg24
Nsg149
(lp1064
I4705
aI2963
asg151
(lp1065
sg153
(lp1066
(dp1067
g51
g207
sg162
V\u041e\u0442\u043f\u0440\u0430\u0432\u0438\u0442\u044c \u043d\u0430 \u0443\u0441\u0442\u0440\u043e\u0439\u0441\u0442\u0432\u043e \u043a\u043e\u043c\u0430\u043d\u0434\u0443
p1068
sg169
Nsa(dp1069
g51
g473
sg162
S'disabled'
p1070
sg169
Nsa(dp1071
g51
g210
sg162
S'_on__send2_command'
p1072
sg169
I1
sasa(dp1073
g142
g199
sg51
S'_serialnumber'
p1074
sg144
S'Entry'
p1075
sg146
(lp1076
sg24
Nsg149
(lp1077
I1850
aI3132
asg151
(lp1078
sg153
(lp1079
(dp1080
g51
g684
sg162
S'serial_number'
p1081
sg169
S's.as'
p1082
sasa(dp1083
g142
S'Tkinter'
p1084
sg51
S'_set_ifbw'
p1085
sg144
S'Button'
p1086
sg146
(lp1087
sg24
Nsg149
(lp1088
I1795
aI8259
asg151
(lp1089
sg153
(lp1090
(dp1091
g51
g207
sg162
S'Set IFBW'
p1092
sg169
Nsa(dp1093
g51
g473
sg162
g682
sg169
Nsa(dp1094
g51
g210
sg162
S'_on__set_ifbw_command'
p1095
sg169
I1
sasa(dp1096
g142
g199
sg51
S'_text_to_send'
p1097
sg144
g1075
sg146
(lp1098
sg24
Nsg149
(lp1099
I3987
aI2189
asg151
(lp1100
sg153
(lp1101
(dp1102
g51
g684
sg162
S'text_to_send'
p1103
sg169
S's.as'
p1104
sasa(dp1105
g142
g1060
sg51
S'_text_to_send2'
p1106
sg144
S'Entry'
p1107
sg146
(lp1108
sg24
Nsg149
(lp1109
I4680
aI2201
asg151
(lp1110
sg153
(lp1111
(dp1112
g51
g684
sg162
S'text_to_send2'
p1113
sg169
S's.as'
p1114
sasasS'BaseClass'
p1115
g55
sg34
I1
sasS'VisibleForm'
p1116
g52
sS'SelectedForm'
p1117
g52
sg51
g6
sa.