(lp1
(dp2
S'ModulePrevious'
p3
S'MA_41_Prog'
p4
sS'ModuleCurrent'
p5
S'Horizon_Prog'
p6
sS'Version'
p7
I1
sS'Geometry'
p8
S'1914x1008+-8+0'
p9
sS'ProjectName'
p10
g6
sS'ImportTypes'
p11
(lp12
(S'Pmw'
p13
S'import'
p14
tp15
a(S'Tkinter'
p16
S'from'
p17
tp18
asS'EditorWidths'
p19
((lp20
I132
aI132
a(lp21
I132
aI132
a(lp22
I130
aI130
atp23
sS'ID'
p24
S'Rapyd Project'
p25
sS'ParkingLot'
p26
(dp27
S'SelectedWidreq'
p28
NsS'Widreqs'
p29
(lp30
ssa(dp31
S'PreviousForm'
p32
S'-Main-'
p33
sS'OnTab'
p34
I1
sS'-Main-'
p35
(dp36
S'Cursor'
p37
S'17.0'
p38
sS'Text'
p39
(lp40
S''
aS'#!/usr/bin/python\n#coding=utf8\n\n'
p41
aS'import rpErrorHandler\nfrom Tkinter import *\n'
p42
aV\u000aconnected=0\u000aCOMtimeout=30\u000astop_reading_COM=0\u000atrim=7\u000a\u000adef lamp_wdg_0():\u000a    write_ram_eep('lamp wdg 0')\u000a    write_ram_eep('at thr gas 1')    \u000a    write_ram_eep('at thr alm 5')    \u000a\u000adef read_string_from_serial():\u000a    char = '*'\u000a    string=""\u000a    while (char<>'') and (char <> '\u005cr'):\u000a        char=ser.read()\u000a        string=string+char\u000a        if char=='\u005cr':\u000a            string=string+'\u005cn'     \u000a        if (char=='') and (string<>""):         \u000a            string=string+'\u005cn'\u000a    return string\u000a\u000adef read_and_print(disable_stop):\u000a    string=''\u000a    if stop_reading_COM==1 and disable_stop==0: return ''\u000a    global connected\u000a    if connected==1: \u000a        string=read_string_from_serial()\u000a        if string<>"":\u000a            App._ReceivedText.insert('1.0', string)  \u000a    return string\u000a            \u000adef verify(string,value,type):\u000a    if type=='ataddr':\u000a        if string.upper().find(("0X"+str(hex(numh()*256+numl()))[2:].zfill(4)).upper())==-1: return 0\u000a    if type=='ipaddr':\u000a        if string.find(value)==-1: return 0\u000a    if type=='macaddr':\u000a        if string.find(value[:12]+str(hex(numh())[2:]).upper().zfill(2)+':'+str(hex(numl())[2:]).upper().zfill(2))==-1: return 0\u000a        \u000a    return 1\u000a        \u000a\u000a\u000adef write_and_verify(param,value,type):\u000a    if value=='': return 1 #1-ok, 0-not ok\u000a    global stop_reading_COM\u000a    stop_reading_COM=1        \u000a\u000a    write_eep(param+' '+value)\u000a    string=write_eep(param)      \u000a\u000a    if verify(string,value,type)==0:\u000a        stop_reading_COM=0\u000a        return 0\u000a        \u000a    stop_reading_COM=0\u000a    return 1\u000a    \u000a    \u000adef loopproc():             \u000a     read_and_print(0)\u000a     setup_ip_mac_etc() \u000a     Root.after(COMtimeout,loopproc) \u000a\u000adef write_ram(string):\u000a    read_and_print(1)\u000a    ser.write(string+'\u005cr') \u000a    read_and_print(1)\u000a    return read_and_print(1)\u000a    \u000adef write_eep(string):\u000a    read_and_print(1)\u000a    ser.write('eeprom '+string+'\u005cr')\u000a    read_and_print(1)\u000a    return read_and_print(1)\u000a    \u000adef write_ram_eep(string):      \u000a    write_eep(string)\u000a    write_ram(string)\u000a    \u000a    \u000adef numh():\u000a    return int(math.floor(int(App.serial_number.get())/1000))\u000a   \u000adef numl():\u000a    return int(int(App.serial_number.get()) % 1000)\u000a\u000adef setup_ip_mac_etc():  \u000a\u000a    if App.serial_number.get()=='':return\u000a\u000a    try:\u000a        int(App.serial_number.get())\u000a    except:\u000a        App.serial_number.set('')\u000a        mbox.showerror('\u041e\u0448\u0438\u0431\u043a\u0430','\u041d\u0435\u0434\u043e\u043f\u0443\u0441\u0442\u0438\u043c\u044b\u0439 \u0441\u0438\u043c\u0432\u043e\u043b!')\u000a        return\u000a        \u000a        \u000a\u000a    if App.device.get()=='ma41' or App.device.get()=='ma45':    \u000a        App.ataddr.set(hex(numh()*256+numl()))\u000a        App.phyipaddr.set('10.2.'+str(numh())+'.'+str(numl()))\u000a        App.ethipaddr.set('')\u000a        App.phymacaddr.set('00:11:D8:13:'+hex(numh())[2:]+':'+hex(numl())[2:])\u000a        App.ethmacaddr.set('')        \u000a\u000a    if App.device.get()=='lsr4':\u000a        App.ataddr.set(hex(numh()*256+numl()))\u000a        App.phyipaddr.set('10.1.'+str(numh())+'.'+str(numl()))\u000a        App.ethipaddr.set('')\u000a        App.phymacaddr.set('00:11:D8:13:'+hex(numh())[2:]+':'+hex(numl())[2:])\u000a        App.ethmacaddr.set('')        \u000a\u000a    if App.device.get()=='lse4':\u000a        App.ataddr.set(hex(numh()*256+numl()))\u000a        App.phyipaddr.set('10.2.'+str(numh())+'.'+str(numl()))\u000a        App.ethipaddr.set('10.0.'+str(numh())+'.'+str(numl()))\u000a        App.phymacaddr.set('00:11:D8:13:'+hex(numh())[2:]+':'+hex(numl())[2:])\u000a        App.ethmacaddr.set('00:11:D8:14:'+hex(numh())[2:]+':'+hex(numl())[2:]) \u000a\u000a    if App.device.get()=='1m500':            \u000a        App.ataddr.set('')\u000a        App.phyipaddr.set('10.1.'+str(numh())+'.'+str(numl()))\u000a        App.ethipaddr.set('10.0.'+str(numh())+'.'+str(numl()))\u000a        App.phymacaddr.set('00:11:D8:13:'+hex(numh())[2:]+':'+hex(numl())[2:])\u000a        App.ethmacaddr.set('00:11:D8:14:'+hex(numh())[2:]+':'+hex(numl())[2:])          \u000a        \u000a    if App.device.get()=='ma45': \u000a        App._ma45_treshold_patch.config(state="normal")\u000a    else:   \u000a        App._ma45_treshold_patch.config(state="disabled")\u000a\u000atry:\u000a    #--------------------------------------------------------------------------#\u000a    # User code should go after this comment so it is inside the "try".        #\u000a    #     This allows rpErrorHandler to gain control on an error so it         #\u000a    #     can properly display a Rapyd-aware error message.                    #\u000a    #--------------------------------------------------------------------------#\u000a\u000a    #Adjust sys.path so we can find other modules of this project\u000a   \u000a   \u000a\u000a    \u000a    \u000a    \u000a    if '.' not in sys.path:\u000a        sys.path.append('.')\u000a    #Put lines to import other modules of this project here\u000a \u000a    import sys\u000a    \u000a    import serial\u000a    import msvcrt\u000a    import time\u000a    import math\u000a    import tkMessageBox as mbox\u000a \u000a \u000a    \u000a    if __name__ == '__main__':\u000a
p43
aS"        Root = Tk()\n        import Tkinter\n        Tkinter.CallWrapper = rpErrorHandler.CallWrapper\n        del Tkinter\n        App = Horizon_Prog(Root)\n        App.pack(expand='yes',fill='both')\n"
p44
aS"        Root.geometry('1000x860+10+10')\n        Root.title('Horizon programming')\n\n        \n        Root.after(COMtimeout,loopproc)\n        \n        def left_key(event): \n           if App.ArrowKeysOn.get()==1:\n               if connected==1:\n                   App._on__left_command()\n            \n        def right_key(event):\n           if App.ArrowKeysOn.get()==1:\n                if connected==1:\n                   App._on__right_command()            \n\n        def up_key(event):\n                if connected==1:\n                   App._on__prog_and_increment_command()                \n        \n        Root.bind('<Left>', left_key)\n        Root.bind('<Right>', right_key)\n        Root.bind('<Up>', up_key)\n\n        \n        Root.mainloop()\n    #--------------------------------------------------------------------------#\n    # User code should go above this comment.                                  #\n    #--------------------------------------------------------------------------#\nexcept:\n    rpErrorHandler.RunError()"
p45
asg7
I0
sS'Sha'
p46
I14853503
ssS'Forms'
p47
(lp48
(dp49
S'Requested'
p50
S'Gui'
p51
sS'Name'
p52
S'Horizon_Prog'
p53
sg28
S'_prog_and_increment'
p54
sS'Type'
p55
S'Tkinter.Frame'
p56
sS'Lines'
p57
(lp58
(lp59
I9854
aI4994
aI1
aa(lp60
I2520
aI4994
aI1
aa(lp61
I1260
aI7884
aI0
aa(lp62
I1260
aI7255
aI0
aa(lp63
I1260
aI6941
aI0
aa(lp64
I1260
aI8779
aI0
aa(lp65
I1260
aI2817
aI0
aa(lp66
I1260
aI2044
aI0
aa(lp67
I1260
aI1729
aI0
aa(lp68
I1260
aI1439
aI0
aa(lp69
I1260
aI1125
aI0
aa(lp70
I475
aI7570
aI1
aa(lp71
I1284
aI7570
aI1
aa(lp72
I1582
aI8331
aI1
aa(lp73
I6184
aI5502
aI0
aa(lp74
I6184
aI6505
aI0
aa(lp75
I6184
aI8561
aI0
aa(lp76
I6184
aI9069
aI0
aa(lp77
I6184
aI6892
aI0
aa(lp78
I6184
aI7388
aI0
aa(lp79
I6184
aI9335
aI0
aa(lp80
I6184
aI5985
aI0
aa(lp81
I6184
aI4135
aI0
aa(lp82
I6184
aI1729
aI0
aa(lp83
I4425
aI2926
aI1
aasg39
(dp84
g37
S'429.0'
p85
sg39
(lp86
S'#------------------------------------------------------------------------------#\n#                                                                              #\n#                                 Horizon_Prog                                 #\n#                                                                              #\n#------------------------------------------------------------------------------#\nclass Horizon_Prog(Frame):\n    def __init__(self,Master=None,*pos,**kw):\n'
p87
aS'        #\n        #Your code here\n        #    \n'
p88
aV\u000a        apply(Frame.__init__,(self,Master),kw)\u000a        self.device = StringVar()\u000a        self.ArrowKeysOn = IntVar()\u000a        self.ataddr = StringVar()\u000a        self.entry_at_addr = StringVar()\u000a        self.entry_at_addr_exe = StringVar()\u000a        self.entry_at_addr_rt = StringVar()\u000a        self.dev_mac = StringVar()\u000a        self.ethipaddr = StringVar()\u000a        self.ethmacaddr = StringVar()\u000a        self.ifbw = IntVar()\u000a        self.entry_ipaddr = StringVar()\u000a        self.ma45_treshold_patch = IntVar()\u000a        self.phyipaddr = StringVar()\u000a        self.phymacaddr = StringVar()\u000a        self.serial_number = StringVar()\u000a        self.text_to_send = StringVar()\u000a        self.text_to_send2 = StringVar()\u000a        self._Frame2 = Frame(self)\u000a        self._Frame2.pack(fill='y',side='left')\u000a        self._Frame4 = Frame(self,background='#dbdbdb')\u000a        self._Frame4.pack(fill='y',side='left')\u000a        self._Frame3 = Frame(self)\u000a        self._Frame3.pack(side='left')\u000a        self._Frame27 = Frame(self._Frame2)\u000a        self._Frame27.pack(side='top')\u000a        self._Label1 = Label(self._Frame27,text='\u0412\u044b\u0431\u0435\u0440\u0435\u0442\u0435 COM-\u043f\u043e\u0440\u0442')\u000a        self._Label1.pack(side='top')\u000a        self._ComPortsList = Listbox(self._Frame27,selectmode='single')\u000a        self._ComPortsList.pack(side='top')\u000a        self._COM_port_connect = Button(self._Frame27\u000a            ,command=self._on__COM_port_connect_command,text='\u041e\u0442\u043a\u0440\u044b\u0442\u044c COM-\u043f\u043e\u0440\u0442')\u000a        self._COM_port_connect.pack(side='bottom')\u000a        self._Frame26 = Frame(self._Frame2)\u000a        self._Frame26.pack(fill='x',side='top')\u000a        self._Label3 = Label(self._Frame26,justify='left'\u000a            ,text='\u0412\u044b\u0431\u0435\u0440\u0435\u0442\u0435 \u0443\u0441\u0442\u0440\u043e\u0439\u0441\u0442\u0432\u043e:')\u000a        self._Label3.pack(anchor='w',side='left')\u000a        self._Frame7 = Frame(self._Frame2)\u000a        self._Frame7.pack(fill='x',side='top')\u000a        self._MA41 = Radiobutton(self._Frame7,command=self._set_serial\u000a            ,justify='left',text='\u041c\u043e\u0434\u0443\u043b\u044c \u041c\u0410-41',value='ma41'\u000a            ,variable=self.device)\u000a        self._MA41.pack(anchor='w',side='left')\u000a        self._Frame11 = Frame(self._Frame2)\u000a        self._Frame11.pack(fill='x',side='top')\u000a        self._MA45 = Radiobutton(self._Frame11,command=self._set_serial\u000a            ,text='\u041c\u043e\u0434\u0443\u043b\u044c \u041c\u0410-45',value='ma45',variable=self.device)\u000a        self._MA45.pack(side='left')\u000a        self._ma45_treshold_patch = Checkbutton(self._Frame11,state='disabled'\u000a            ,text='MA-45 patch',variable=self.ma45_treshold_patch)\u000a        self._ma45_treshold_patch.pack(side='left')\u000a        self._Frame12 = Frame(self._Frame2)\u000a        self._Frame12.pack(fill='x',side='top')\u000a        self._LSR4 = Radiobutton(self._Frame12,command=self._set_serial\u000a            ,justify='left',text='\u0421\u0447\u0438\u0442\u044b\u0432\u0430\u0442\u0435\u043b\u044c \u041b\u0421-\u04204',value='lsr4'\u000a            ,variable=self.device)\u000a        self._LSR4.pack(anchor='w',side='top')\u000a        self._LSE4 = Radiobutton(self._Frame12,command=self._set_serial\u000a            ,justify='left',text='\u0421\u0447\u0438\u0442\u044b\u0432\u0430\u0442\u0435\u043b\u044c \u041b\u0421-\u04154',value='lse4'\u000a            ,variable=self.device)\u000a        self._LSE4.pack(anchor='w',side='top')\u000a        self._1M500 = Radiobutton(self._Frame12,command=self._set_serial\u000a            ,justify='left',text='\u041a\u0430\u0441\u0441\u0435\u0442\u0430 1-M-500',value='1m500'\u000a            ,variable=self.device)\u000a        self._1M500.pack(anchor='w',side='top')\u000a        self._Frame6 = Frame(self._Frame2)\u000a        self._Frame6.pack(side='top')\u000a        self._Label2 = Label(self._Frame6,text='\u0421\u0435\u0440\u0438\u0439\u043d\u044b\u0439 \u043d\u043e\u043c\u0435\u0440:')\u000a        self._Label2.pack(side='top')\u000a        self._serialnumber = Entry(self._Frame6,textvariable=self.serial_number)\u000a        self._serialnumber.pack(side='top')\u000a        self._prog_and_increment = Button(self._Frame6\u000a            ,command=self._on__prog_and_increment_command,state='disabled'\u000a            ,text='TEST')\u000a        self._prog_and_increment.pack(side='top')\u000a        self._GasThreshold = Button(self._Frame6\u000a            ,command=self._on__GasThreshold_command,state='disabled'\u000a            ,text='Write Gas Threshold')\u000a        self._GasThreshold.pack(side='top')\u000a        self._ethmacaddr = Entry(self._Frame6,state='disabled'\u000a            ,textvariable=self.ethmacaddr)\u000a        self._ethmacaddr.pack(side='bottom')\u000a        self._Label8 = Label(self._Frame6,text='eth macaddr:')\u000a        self._Label8.pack(side='bottom')\u000a        self._phymacaddr = Entry(self._Frame6,state='disabled'\u000a            ,textvariable=self.phymacaddr)\u000a        self._phymacaddr.pack(side='bottom')\u000a        self._Label7 = Label(self._Frame6,text='phy macaddr:')\u000a        self._Label7.pack(side='bottom')\u000a        self._ethipaddr = Entry(self._Frame6,state='disabled'\u000a            ,textvariable=self.ethipaddr)\u000a        self._ethipaddr.pack(side='bottom')\u000a        self._Label6 = Label(self._Frame6,text='eth ipaddr:')\u000a        self._Label6.pack(side='bottom')\u000a        self._phyipaddr = Entry(self._Frame6,state='disabled'\u000a            ,textvariable=self.phyipaddr)\u000a        self._phyipaddr.pack(side='bottom')\u000a        self._Label5 = Label(self._Frame6,text='phy ipaddr:')\u000a        self._Label5.pack(side='bottom')\u000a        self._ataddr = Entry(self._Frame6,state='disabled'\u000a            ,textvariable=self.ataddr)\u000a        self._ataddr.pack(side='bottom')\u000a        self._Label9 = Label(self._Frame6,text='at addr')\u000a        self._Label9.pack(side='bottom')\u000a        self._Frame1 = Frame(self._Frame2)\u000a        self._Frame1.pack(side='top')\u000a        self._Label10 = Label(self._Frame1,text='at frequency trim:')\u000a        self._Label10.pack(side='top')\u000a        self._Frame10 = Frame(self._Frame2)\u000a        self._Frame10.pack(side='top')\u000a        self._Frame23 = Frame(self._Frame2,background='#c0c0c0',borderwidth='10')\u000a        self._Frame23.pack(side='top')\u000a        self._Frame22 = Frame(self._Frame2)\u000a        self._Frame22.pack(side='top')\u000a        self._btn_lamp_wdg_0 = Button(self._Frame22\u000a            ,command=self._on__btn_adf_wdg_0_command,state='disabled'\u000a            ,text='lamp wdg 0')\u000a        self._btn_lamp_wdg_0.pack(side='left')\u000a        self._Frame29 = Frame(self._Frame4)\u000a        self._Frame29.pack(side='top')\u000a        self._Label4 = Label(self._Frame29,text='\u0412\u0432\u0435\u0434\u0438\u0442\u0435 \u043a\u043e\u043c\u0430\u043d\u0434\u0443 \u0434\u043b\u044f \u043e\u0442\u043f\u0440\u0430\u0432\u043a\u0438:')\u000a        self._Label4.pack(side='bottom')\u000a        self._Frame19 = Frame(self._Frame4)\u000a        self._Frame19.pack(side='top')\u000a        self._Frame14 = Frame(self._Frame4)\u000a        self._Frame14.pack(side='top')\u000a        self._label_Rcvd_Text = Label(self._Frame14\u000a            ,text='\u041f\u0440\u0438\u043d\u044f\u0442\u043e \u043e\u0442 \u0443\u0441\u0442\u0440\u043e\u0439\u0441\u0442\u0432\u0430:')\u000a        self._label_Rcvd_Text.pack(side='top')\u000a        self._ReceivedText = Text(self._Frame14\u000a            ,font=('@Arial Unicode MS', 10, ''),height='35')\u000a        self._ReceivedText.pack(side='top')\u000a        self._Frame9 = Frame(self._Frame4)\u000a        self._Frame9.pack(fill='x',side='top')\u000a        self._btn_dbg0 = Button(self._Frame9,command=self._on__btn_dbg0_command\u000a            ,state='disabled',text='dbg 0')\u000a        self._btn_dbg0.pack(anchor='w',side='left')\u000a        self._btn_dbg1 = Button(self._Frame9,command=self._on__btn_dbg1_command\u000a            ,state='disabled',text='dbg 1')\u000a        self._btn_dbg1.pack(anchor='w',side='left')\u000a        self._Frame28 = Frame(self._Frame4)\u000a        self._Frame28.pack(fill='x',side='top')\u000a        self._btn_ping = Button(self._Frame28,command=self._on__btn_ping_command\u000a            ,state='disabled',text='ping')\u000a        self._btn_ping.pack(side='left')\u000a        self._ipaddr = Entry(self._Frame28,textvariable=self.entry_ipaddr)\u000a        self._ipaddr.pack(side='left')\u000a        self._Frame15 = Frame(self._Frame4)\u000a        self._Frame15.pack(fill='x',side='top')\u000a        self._btn_phyipaddr = Button(self._Frame15\u000a            ,command=self._on__btn_phyipaddr_command,state='disabled'\u000a            ,text='phy ipaddr')\u000a        self._btn_phyipaddr.pack(anchor='w',side='left')\u000a        self._btn_ataddr = Button(self._Frame15\u000a            ,command=self._on__btn_ataddr_command,state='disabled'\u000a            ,text='at addr')\u000a        self._btn_ataddr.pack(side='left')\u000a        self._Frame18 = Frame(self._Frame4)\u000a        self._Frame18.pack(fill='x',side='top')\u000a        self._btn_adf_tst = Button(self._Frame18\u000a            ,command=self._on__btn_adf_tst_command,state='disabled'\u000a            ,text='adf tst')\u000a        self._btn_adf_tst.pack(anchor='w',side='left')\u000a        self._btn_adf_tst_50 = Button(self._Frame18\u000a            ,command=self._on__btn_adf_tst_50_command,state='disabled'\u000a            ,text='adf tst 50')\u000a        self._btn_adf_tst_50.pack(anchor='w',side='left')\u000a        self._Frame16 = Frame(self._Frame4)\u000a        self._Frame16.pack(fill='x',side='top')\u000a        self._btn_at_dst_rt = Button(self._Frame16\u000a            ,command=self._on__btn_at_dst_rt_command,state='disabled'\u000a            ,text='at dst 0xXXXX + rt')\u000a        self._btn_at_dst_rt.pack(anchor='w',side='left')\u000a        self._entry_at_addr = Entry(self._Frame16\u000a            ,textvariable=self.entry_at_addr)\u000a        self._entry_at_addr.pack(side='left')\u000a        self._Frame17 = Frame(self._Frame4)\u000a        self._Frame17.pack(fill='x',side='top')\u000a        self._Label11 = Label(self._Frame17,text='\u041b\u0421-\u04204:')\u000a        self._Label11.pack(side='left')\u000a        self._entry_at_addr_exe = Entry(self._Frame17\u000a            ,textvariable=self.entry_at_addr_exe)\u000a        self._entry_at_addr_exe.pack(side='left')\u000a        self._btn_exe_at_dst_rt = Button(self._Frame17\u000a            ,command=self._on__btn_exe_at_dst_rt_command,state='disabled'\u000a            ,text='exe 0xXXXX at dst 0xXXXX + rt')\u000a        self._btn_exe_at_dst_rt.pack(side='left')\u000a        self._Label12 = Label(self._Frame17,text='\u041c\u0410:')\u000a        self._Label12.pack(side='left')\u000a        self._entry_at_addr_rt = Entry(self._Frame17\u000a            ,textvariable=self.entry_at_addr_rt)\u000a        self._entry_at_addr_rt.pack(side='left')\u000a        self._Frame20 = Frame(self._Frame4)\u000a        self._Frame20.pack(fill='x',side='top')\u000a        self._Label13 = Label(self._Frame20,text='\u0414\u043b\u044f \u043a\u0430\u0441\u0441\u0435\u0442\u044b 1-\u041c-5:')\u000a        self._Label13.pack(side='left')\u000a        self._Frame21 = Frame(self._Frame4)\u000a        self._Frame21.pack(fill='x',side='top')\u000a        self._btn_root = Button(self._Frame21,command=self._on__btn_root_command\u000a            ,state='disabled',text='root')\u000a        self._btn_root.pack(anchor='w',side='left')\u000a        self._btn_talnakh = Button(self._Frame21\u000a            ,command=self._on__btn_tanakh_command,state='disabled'\u000a            ,text='talnakh')\u000a        self._btn_talnakh.pack(side='left')\u000a        self._btn_enter = Button(self._Frame21\u000a            ,command=self._on__btn_enter_command,state='disabled'\u000a            ,text='Enter key')\u000a        self._btn_enter.pack(side='left')\u000a        self._btn_dev_mac = Button(self._Frame21\u000a            ,command=self._on__btn_dev_mac_command,state='disabled'\u000a            ,text='dev mac')\u000a        self._btn_dev_mac.pack(side='left')\u000a        self._entry_dev_mac = Entry(self._Frame21,textvariable=self.dev_mac)\u000a        self._entry_dev_mac.pack(side='left')\u000a        self._btn_dev_req = Button(self._Frame21\u000a            ,command=self._on__btn_dev_req_command,state='disabled'\u000a            ,text='dev req')\u000a        self._btn_dev_req.pack(side='left')\u000a        self._Frame5 = Frame(self._Frame10)\u000a        self._Frame5.pack(side='left')\u000a        self._left = Button(self._Frame5,command=self._on__left_command\u000a            ,state='disabled',text='<-------(left key)--at trim left')\u000a        self._left.pack(side='left')\u000a        self._Frame13 = Frame(self._Frame10)\u000a        self._Frame13.pack(side='left')\u000a        self._right = Button(self._Frame13,command=self._on__right_command\u000a            ,state='disabled',text='at trim right--(right key)------->')\u000a        self._right.pack(side='left')\u000a        self._Frame8 = Frame(self._Frame10)\u000a        self._Frame8.pack(side='left')\u000a        self._ArrowKeysOn = Checkbutton(self._Frame8\u000a            ,text='Arrow keys control on',variable=self.ArrowKeysOn)\u000a        self._ArrowKeysOn.pack(side='left')\u000a        self._Frame25 = Frame(self._Frame23)\u000a        self._Frame25.pack(side='left')\u000a        self._ifbw0 = Radiobutton(self._Frame25,text='ifbw 0 (\u0434\u043b\u044f ADF7021)'\u000a            ,value=0,variable=self.ifbw)\u000a        self._ifbw0.pack(side='top')\u000a        self._ifbw1 = Radiobutton(self._Frame25,text='ifbw 1 (\u0434\u043b\u044f ADF7021-N)'\u000a            ,value=1,variable=self.ifbw)\u000a        self._ifbw1.pack(side='top')\u000a        self._Frame24 = Frame(self._Frame23)\u000a        self._Frame24.pack(side='left')\u000a        self._set_ifbw = Button(self._Frame24,command=self._on__set_ifbw_command\u000a            ,state='disabled',text='Set IFBW')\u000a        self._set_ifbw.pack(side='left')\u000a        self._Frame31 = Frame(self._Frame19)\u000a        self._Frame31.pack(expand='yes',fill='x',side='left')\u000a        self._text_to_send = Entry(self._Frame31,textvariable=self.text_to_send)\u000a        self._text_to_send.pack(side='top')\u000a        self._send = Button(self._Frame31,command=self._on__send_command\u000a            ,state='disabled',text='\u041e\u0442\u043f\u0440\u0430\u0432\u0438\u0442\u044c \u043d\u0430 \u0443\u0441\u0442\u0440\u043e\u0439\u0441\u0442\u0432\u043e \u043a\u043e\u043c\u0430\u043d\u0434\u0443')\u000a        self._send.pack(fill='x',side='top')\u000a        self._Frame30 = Frame(self._Frame19)\u000a        self._Frame30.pack(expand='yes',fill='x',side='left')\u000a        self._text_to_send2 = Entry(self._Frame30\u000a            ,textvariable=self.text_to_send2)\u000a        self._text_to_send2.pack(side='top')\u000a        self._send2 = Button(self._Frame30,command=self._on__send2_command\u000a            ,state='disabled',text='\u041e\u0442\u043f\u0440\u0430\u0432\u0438\u0442\u044c \u043d\u0430 \u0443\u0441\u0442\u0440\u043e\u0439\u0441\u0442\u0432\u043e \u043a\u043e\u043c\u0430\u043d\u0434\u0443')\u000a        self._send2.pack(side='top')\u000a
p89
aV        #\u000a        #Your code here\u000a        #\u000a        \u000a        found = False\u000a \u000a        for i in range(5,64) :\u000a            try :\u000a                port = "COM"+str(i)\u000a                ser = serial.Serial(port)\u000a                ser.close()\u000a                self._ComPortsList.insert(0, port)\u000a                found = True\u000a            except serial.serialutil.SerialException :\u000a                pass\u000a \u000a        if not found :\u000a            mbox.showerror("\u041f\u043e\u0441\u043b\u0435\u0434\u043e\u0432\u0430\u0442\u0435\u043b\u044c\u043d\u044b\u0445 \u043f\u043e\u0440\u0442\u043e\u0432 \u043d\u0435 \u043e\u0431\u043d\u0430\u0440\u0443\u0436\u0435\u043d\u043e")\u000a        \u000a\u000a            \u000a\u000a        \u000a        self.device.set('ma41')\u000a        self.serial_number.set('16001')\u000a        self.ifbw.set(0)\u000a        \u000a\u000a        self.text_to_send.set(str("exe 0x0003 sys info"))\u000a        self.text_to_send2.set(str("exe 7 exe 2 sys info"))\u000a        \u000a        self.entry_ipaddr.set('10.2.1.20')\u000a        self.entry_at_addr.set('0x0007')\u000a        self.entry_at_addr_exe.set('0x202')\u000a        self.entry_at_addr_rt.set('0x104d')\u000a        self.dev_mac.set('12345')\u000a        self.ma45_treshold_patch.set(1)\u000a        \u000a
p90
aS'    #\n    #Start of event handler methods\n    #\n'
p91
aS'\n'
aS'\n    def _on__COM_port_connect_command(self'
p92
aV,Event=None):\u000a        global connected\u000a        try:\u000a            global ser                      \u000a            ser = serial.Serial(self._ComPortsList.get(self._ComPortsList.curselection()),timeout=0.02)\u000a            ser.baudrate = 115200\u000a            connected=1\u000a            self._COM_port_connect.config(state='disabled')\u000a            self._prog_and_increment.config(state="normal")\u000a            self._send.config(state="normal")\u000a            self._send2.config(state="normal")\u000a            self._set_ifbw.config(state="normal")\u000a            self._prog_and_increment.config(state="normal")\u000a            self._left.config(state="normal")\u000a            self._right.config(state="normal")\u000a            self._btn_ping.config(state="normal")\u000a            self._btn_phyipaddr.config(state="normal")\u000a            self._btn_ataddr.config(state="normal")\u000a            self._btn_adf_tst.config(state="normal")            \u000a            self._btn_adf_tst_50.config(state="normal")            \u000a            self._btn_dbg0.config(state="normal")\u000a            self._btn_dbg1.config(state="normal")\u000a            self._btn_at_dst_rt.config(state="normal")\u000a            self._btn_exe_at_dst_rt.config(state="normal")\u000a            self._btn_root.config(state="normal")\u000a            self._btn_talnakh.config(state="normal")\u000a            self._btn_enter.config(state="normal")           \u000a            self._btn_dev_mac.config(state="normal")\u000a            self._btn_dev_req.config(state="normal")            \u000a            self._btn_lamp_wdg_0.config(state="normal")\u000a            self._GasThreshold.config(state="normal")\u000a        except:            \u000a            connected=0\u000a            mbox.showerror("\u041e\u0448\u0438\u0431\u043a\u0430", "\u041d\u0435\u0432\u043e\u0437\u043c\u043e\u0436\u043d\u043e \u043e\u0442\u043a\u0440\u044b\u0442\u044c COM-\u043f\u043e\u0440\u0442")  \u000a            \u000a        \u000a\u000a\u000a
p93
aS'\n    def _on__GasThreshold_command(self'
p94
aV,Event=None):\u000a        ok=1\u000a\u000a        if write_and_verify('at thr alm','0x05','ipaddr')==0:            \u000a           ok=0\u000a           mbox.showerror("\u041e\u0448\u0438\u0431\u043a\u0430","\u041e\u0448\u0438\u0431\u043a\u0430 \u0437\u0430\u043f\u0438\u0441\u0438 at thr alm")\u000a        \u000a        if write_and_verify('at thr gas','0x01','ipaddr')==0:            \u000a           ok=0\u000a           mbox.showerror("\u041e\u0448\u0438\u0431\u043a\u0430","\u041e\u0448\u0438\u0431\u043a\u0430 \u0437\u0430\u043f\u0438\u0441\u0438 at thr gas")\u000a        \u000a        \u000a        pass\u000a
p95
aS'\n    def _on__btn_adf_tst_50_command(self'
p96
aS",Event=None):\n        write_ram('adf tst 50')\n"
p97
aS'\n    def _on__btn_adf_tst_command(self'
p98
aS",Event=None):\n        write_ram('adf tst')\n"
p99
aS'\n    def _on__btn_adf_wdg_0_command(self'
p100
aS',Event=None):\n        lamp_wdg_0()\n'
p101
aS'\n    def _on__btn_at_dst_rt_command(self'
p102
aS",Event=None):\n        write_ram('at dst '+str(self.entry_at_addr.get()))\n        write_ram('rt')\n"
p103
aS'\n    def _on__btn_ataddr_command(self'
p104
aS",Event=None):\n        write_ram('at addr')\n"
p105
aS'\n    def _on__btn_dbg0_command(self'
p106
aS",Event=None):\n        write_ram('dbg 0')\n"
p107
aS'\n    def _on__btn_dbg1_command(self'
p108
aS",Event=None):\n        write_ram('dbg 1')\n"
p109
aS'\n    def _on__btn_dev_mac_command(self'
p110
aS",Event=None):\n        write_ram('dev mac '+str(self.dev_mac.get()))\n"
p111
aS'\n    def _on__btn_dev_req_command(self'
p112
aS",Event=None):\n        write_ram('dev req')\n"
p113
aS'\n    def _on__btn_enter_command(self'
p114
aS",Event=None):\n        write_ram('')\n"
p115
aS'\n    def _on__btn_exe_at_dst_rt_command(self'
p116
aS",Event=None):\n        write_ram('exe '+self.entry_at_addr_exe.get()+' at dst '+self.entry_at_addr_rt.get())\n        write_ram('exe '+self.entry_at_addr_exe.get()+' rt')\n"
p117
aS'\n    def _on__btn_phyipaddr_command(self'
p118
aS",Event=None):\n        write_ram('phy ipaddr')\n"
p119
aS'\n    def _on__btn_ping_command(self'
p120
aS",Event=None):\n        write_ram('ping '+str(self.entry_ipaddr.get()))\n"
p121
aS'\n    def _on__btn_root_command(self'
p122
aS",Event=None):\n        write_ram('root')\n"
p123
aS'\n    def _on__btn_tanakh_command(self'
p124
aS",Event=None):\n        write_ram('talnakh')\n"
p125
aS'\n    def _on__left_command(self'
p126
aS',Event=None):\n        global trim\n        if trim <15:\n            trim+=1\n        write_ram_eep("at trim "+str(trim)+\'\\r\')\n'
p127
aS'\n    def _on__prog_and_increment_command(self'
p128
aV,Event=None):\u000a        setup_ip_mac_etc()\u000a        ok=1\u000a        \u000a        write_ram('exe '+self.ataddr.get()+' sys info');\u000a        ok=1\u000a\u000a#       if write_and_verify('at addr',self.ataddr.get(),'ataddr')==0:            \u000a#          ok=0\u000a#           mbox.showerror("\u041e\u0448\u0438\u0431\u043a\u0430","\u041e\u0448\u0438\u0431\u043a\u0430 \u0437\u0430\u043f\u0438\u0441\u0438 at addr")\u000a\u000a#        if write_and_verify('phy ipaddr',self.phyipaddr.get(),'ipaddr')==0:            \u000a#           ok=0\u000a#           mbox.showerror("\u041e\u0448\u0438\u0431\u043a\u0430","\u041e\u0448\u0438\u0431\u043a\u0430 \u0437\u0430\u043f\u0438\u0441\u0438 phy ipaddr")\u000a           \u000a#        if write_and_verify('eth ipaddr',self.ethipaddr.get(),'ipaddr')==0:            \u000a#           ok=0\u000a#           mbox.showerror("\u041e\u0448\u0438\u0431\u043a\u0430","\u041e\u0448\u0438\u0431\u043a\u0430 \u0437\u0430\u043f\u0438\u0441\u0438 eth ipaddr")   \u000a           \u000a#        if write_and_verify('phy macaddr',self.phymacaddr.get(),'macaddr')==0:            \u000a#           ok=0\u000a#           mbox.showerror("\u041e\u0448\u0438\u0431\u043a\u0430","\u041e\u0448\u0438\u0431\u043a\u0430 \u0437\u0430\u043f\u0438\u0441\u0438 phy macaddr")                 \u000a           \u000a#        if write_and_verify('eth macaddr',self.ethmacaddr.get(),'macaddr')==0:            \u000a#           ok=0\u000a#           mbox.showerror("\u041e\u0448\u0438\u0431\u043a\u0430","\u041e\u0448\u0438\u0431\u043a\u0430 \u0437\u0430\u043f\u0438\u0441\u0438 eth macaddr")\u000a           \u000a#        if self.device.get()=='ma41':\u000a#            self._on__set_ifbw_command()\u000a#            lamp_wdg_0()\u000a        \u000a#        if self.device.get()=='ma45' and self.ma45_treshold_patch.get()==1: \u000a#            write_eep('at thr gas 0x01')   \u000a#            write_eep('iwdg rst 3600')               \u000a        \u000a        if ok==1:\u000a            self.serial_number.set(str(int(self.serial_number.get())+1))\u000a            if int(self.serial_number.get())%1000>=255:\u000a               self.serial_number.set(int(self.serial_number.get())+746)\u000a        \u000a        \u000a
p129
aS'\n    def _on__right_command(self'
p130
aS',Event=None):\n        global trim\n        if trim >0:\n            trim-=1\n        write_ram_eep("at trim "+str(trim)+\'\\r\')\n'
p131
aS'\n    def _on__send2_command(self'
p132
aS",Event=None):\n        ser.write(self._text_to_send2.get()+'\\r')\n"
p133
aS'\n    def _on__send_command(self'
p134
aS",Event=None):\n        ser.write(self._text_to_send.get()+'\\r')\n        \n\n"
p135
aS'\n    def _on__set_ifbw_command(self'
p136
aS",Event=None):        \n        write_ram_eep('adf ifbw '+str(self.ifbw.get()))\n        \n\n"
p137
aS'\n    def _set_serial(self'
p138
aS",Event=None):\n        if self.device.get()=='ma41':\n            self.serial_number.set('16001')\n            \n        if self.device.get()=='ma45':\n            self.serial_number.set('16001')         \n\n        if self.device.get()=='lsr4':\n            self.serial_number.set('1008')\n\n        if self.device.get()=='lse4':\n            self.serial_number.set('1008')\n      \n        if self.device.get()=='1m500':\n            self.serial_number.set('1008')\n            \n        setup_ip_mac_etc()\n\n\n      \n"
p139
aS'    #\n    #Start of non-Rapyd user code\n    #\n'
p140
aS''
asg7
I0
sg46
I11548543
ssg29
(lp141
(dp142
S'ModuleName'
p143
S'Tkinter'
p144
sg52
g53
sS'WidgetName'
p145
S'Frame'
p146
sS'PackOptions'
p147
(lp148
sg24
(I0
tp149
sS'XY'
p150
(I0
I0
tp151
sS'Bindings'
p152
(lp153
sS'Options'
p154
(lp155
sa(dp156
g143
S'Tkinter'
p157
sg52
S'_1M500'
p158
sg145
S'Radiobutton'
p159
sg147
(lp160
(dp161
g52
S'anchor'
p162
sS'Value'
p163
S'w'
sasg24
Nsg150
(lp164
I1850
aI2600
asg152
(lp165
sg154
(lp166
(dp167
g52
S'text'
p168
sg163
V\u041a\u0430\u0441\u0441\u0435\u0442\u0430 1-M-500
p169
sS'Extra'
p170
Nsa(dp171
g52
S'variable'
p172
sg163
S'device'
p173
sg170
S'is.as'
p174
sa(dp175
g52
S'value'
p176
sg163
S'1m500'
p177
sg170
Nsa(dp178
g52
S'command'
p179
sg163
S'_set_serial'
p180
sg170
I1
sa(dp181
g52
S'justify'
p182
sg163
S'left'
p183
sg170
Nsasa(dp184
g143
S'Tkinter'
p185
sg52
S'_ArrowKeysOn'
p186
sg145
S'Checkbutton'
p187
sg147
(lp188
sg24
Nsg150
(lp189
I1570
aI7545
asg152
(lp190
sg154
(lp191
(dp192
g52
S'text'
p193
sg163
S'Arrow keys control on'
p194
sg170
Nsa(dp195
g52
S'variable'
p196
sg163
S'ArrowKeysOn'
p197
sg170
S'sif.ai'
p198
sasa(dp199
g143
S'Tkinter'
p200
sg52
S'_COM_port_connect'
p201
sg145
S'Button'
p202
sg147
(lp203
sg24
Nsg150
(lp204
I1862
aI931
asg152
(lp205
sg154
(lp206
(dp207
g52
S'text'
p208
sg163
V\u041e\u0442\u043a\u0440\u044b\u0442\u044c COM-\u043f\u043e\u0440\u0442
p209
sg170
Nsa(dp210
g52
S'command'
p211
sg163
S'_on__COM_port_connect_command'
p212
sg170
I1
sasa(dp213
g143
S'Tkinter'
p214
sg52
S'_ComPortsList'
p215
sg145
S'Listbox'
p216
sg147
(lp217
sg24
Nsg150
(lp218
I1850
aI593
asg152
(lp219
sg154
(lp220
(dp221
g52
S'selectmode'
p222
sg163
S'single'
p223
sg170
Nsasa(dp224
g143
S'Tkinter'
p225
sg52
S'_Frame1'
p226
sg145
S'Frame'
p227
sg147
(lp228
sg24
(I0
I0
I6
tp229
sg150
g151
sg152
(lp230
sg154
(lp231
sa(dp232
g143
g225
sg52
S'_Frame10'
p233
sg145
g227
sg147
(lp234
sg24
(I0
I0
I7
tp235
sg150
g151
sg152
(lp236
sg154
(lp237
sa(dp238
g143
S'Tkinter'
p239
sg52
S'_Frame11'
p240
sg145
S'Frame'
p241
sg147
(lp242
(dp243
g52
S'fill'
p244
sg163
S'x'
sasg24
(I0
I0
I3
tp245
sg150
g151
sg152
(lp246
sg154
(lp247
sa(dp248
g143
S'Tkinter'
p249
sg52
S'_Frame12'
p250
sg145
S'Frame'
p251
sg147
(lp252
(dp253
g52
g244
sg163
S'x'
sasg24
(I0
I0
I4
tp254
sg150
g151
sg152
(lp255
sg154
(lp256
sa(dp257
g143
g225
sg52
S'_Frame13'
p258
sg145
g227
sg147
(lp259
sg24
(I0
I0
I7
I1
tp260
sg150
g151
sg152
(lp261
sg154
(lp262
sa(dp263
g143
S'Tkinter'
p264
sg52
S'_Frame14'
p265
sg145
S'Frame'
p266
sg147
(lp267
sg24
(I0
I1
I2
tp268
sg150
g151
sg152
(lp269
sg154
(lp270
sa(dp271
g143
g264
sg52
S'_Frame15'
p272
sg145
g266
sg147
(lp273
(dp274
g52
g244
sg163
S'x'
sasg24
(I0
I1
I5
tp275
sg150
g151
sg152
(lp276
sg154
(lp277
sa(dp278
g143
S'Tkinter'
p279
sg52
S'_Frame16'
p280
sg145
S'Frame'
p281
sg147
(lp282
(dp283
g52
g244
sg163
S'x'
sasg24
(I0
I1
I7
tp284
sg150
g151
sg152
(lp285
sg154
(lp286
sa(dp287
g143
g279
sg52
S'_Frame17'
p288
sg145
g281
sg147
(lp289
(dp290
g52
g244
sg163
S'x'
sasg24
(I0
I1
I8
tp291
sg150
g151
sg152
(lp292
sg154
(lp293
sa(dp294
g143
g279
sg52
S'_Frame18'
p295
sg145
g281
sg147
(lp296
(dp297
g52
g244
sg163
S'x'
sasg24
(I0
I1
I6
tp298
sg150
g151
sg152
(lp299
sg154
(lp300
sa(dp301
g143
S'Tkinter'
p302
sg52
S'_Frame19'
p303
sg145
S'Frame'
p304
sg147
(lp305
sg24
(I0
I1
I1
tp306
sg150
g151
sg152
(lp307
sg154
(lp308
sa(dp309
g143
S'Tkinter'
p310
sg52
S'_Frame2'
p311
sg145
S'Frame'
p312
sg147
(lp313
(dp314
g52
g244
sg163
S'y'
sasg24
(I0
I0
tp315
sg150
g151
sg152
(lp316
sg154
(lp317
sa(dp318
g143
g279
sg52
S'_Frame20'
p319
sg145
g281
sg147
(lp320
(dp321
g52
g244
sg163
S'x'
sasg24
(I0
I1
I9
tp322
sg150
g151
sg152
(lp323
sg154
(lp324
sa(dp325
g143
S'Tkinter'
p326
sg52
S'_Frame21'
p327
sg145
S'Frame'
p328
sg147
(lp329
(dp330
g52
g244
sg163
S'x'
sasg24
(I0
I1
I10
tp331
sg150
g151
sg152
(lp332
sg154
(lp333
sa(dp334
g143
S'Tkinter'
p335
sg52
S'_Frame22'
p336
sg145
S'Frame'
p337
sg147
(lp338
sg24
(I0
I0
I9
tp339
sg150
g151
sg152
(lp340
sg154
(lp341
sa(dp342
g143
g335
sg52
S'_Frame23'
p343
sg145
g337
sg147
(lp344
sg24
(I0
I0
I8
tp345
sg150
g151
sg152
(lp346
sg154
(lp347
(dp348
g52
S'borderwidth'
p349
sg163
S'n:10'
p350
sg170
Nsa(dp351
g52
S'background'
p352
sg163
S'c:#c0c0c0'
p353
sg170
Nsasa(dp354
g143
g335
sg52
S'_Frame24'
p355
sg145
g337
sg147
(lp356
sg24
(I0
I0
I8
I1
tp357
sg150
g151
sg152
(lp358
sg154
(lp359
sa(dp360
g143
g335
sg52
S'_Frame25'
p361
sg145
g337
sg147
(lp362
sg24
(I0
I0
I8
I0
tp363
sg150
g151
sg152
(lp364
sg154
(lp365
sa(dp366
g143
g249
sg52
S'_Frame26'
p367
sg145
g251
sg147
(lp368
(dp369
g52
g244
sg163
S'x'
sasg24
(I0
I0
I1
tp370
sg150
g151
sg152
(lp371
sg154
(lp372
sa(dp373
g143
g249
sg52
S'_Frame27'
p374
sg145
g251
sg147
(lp375
sg24
(I0
I0
I0
tp376
sg150
g151
sg152
(lp377
sg154
(lp378
sa(dp379
g143
S'Tkinter'
p380
sg52
S'_Frame28'
p381
sg145
S'Frame'
p382
sg147
(lp383
(dp384
g52
g244
sg163
S'x'
sasg24
(I0
I1
I4
tp385
sg150
g151
sg152
(lp386
sg154
(lp387
sa(dp388
g143
g302
sg52
S'_Frame29'
p389
sg145
g304
sg147
(lp390
sg24
(I0
I1
I0
tp391
sg150
g151
sg152
(lp392
sg154
(lp393
sa(dp394
g143
S'Tkinter'
p395
sg52
S'_Frame3'
p396
sg145
S'Frame'
p397
sg147
(lp398
sg24
(I0
I2
tp399
sg150
g151
sg152
(lp400
sg154
(lp401
sa(dp402
g143
g302
sg52
S'_Frame30'
p403
sg145
g304
sg147
(lp404
(dp405
g52
S'expand'
p406
sg163
S'yes'
p407
sa(dp408
g52
g244
sg163
S'x'
sasg24
(I0
I1
I1
I1
tp409
sg150
g151
sg152
(lp410
sg154
(lp411
sa(dp412
g143
g302
sg52
S'_Frame31'
p413
sg145
g304
sg147
(lp414
(dp415
g52
g406
sg163
g407
sa(dp416
g52
g244
sg163
S'x'
sasg24
(I0
I1
I1
I0
tp417
sg150
g151
sg152
(lp418
sg154
(lp419
sa(dp420
g143
g395
sg52
S'_Frame4'
p421
sg145
g397
sg147
(lp422
(dp423
g52
g244
sg163
S'y'
sasg24
(I0
I1
tp424
sg150
g151
sg152
(lp425
sg154
(lp426
(dp427
g52
g352
sg163
S'c:#dbdbdb'
p428
sg170
Nsasa(dp429
g143
g225
sg52
S'_Frame5'
p430
sg145
g227
sg147
(lp431
sg24
(I0
I0
I7
I0
tp432
sg150
g151
sg152
(lp433
sg154
(lp434
sa(dp435
g143
g225
sg52
S'_Frame6'
p436
sg145
g227
sg147
(lp437
sg24
(I0
I0
I5
tp438
sg150
g151
sg152
(lp439
sg154
(lp440
sa(dp441
g143
g239
sg52
S'_Frame7'
p442
sg145
g241
sg147
(lp443
(dp444
g52
g244
sg163
S'x'
sasg24
(I0
I0
I2
tp445
sg150
g151
sg152
(lp446
sg154
(lp447
sa(dp448
g143
S'Tkinter'
p449
sg52
S'_Frame8'
p450
sg145
S'Frame'
p451
sg147
(lp452
sg24
(I0
I0
I7
I2
tp453
sg150
g151
sg152
(lp454
sg154
(lp455
sa(dp456
g143
g264
sg52
S'_Frame9'
p457
sg145
g266
sg147
(lp458
(dp459
g52
g244
sg163
S'x'
sasg24
(I0
I1
I3
tp460
sg150
g151
sg152
(lp461
sg154
(lp462
sa(dp463
g143
S'Tkinter'
p464
sg52
S'_GasThreshold'
p465
sg145
S'Button'
p466
sg147
(lp467
sg24
Nsg150
(lp468
I1862
aI3700
asg152
(lp469
sg154
(lp470
(dp471
g52
g208
sg163
S'Write Gas Threshold'
p472
sg170
Nsa(dp473
g52
S'state'
p474
sg163
S'disabled'
p475
sg170
Nsa(dp476
g52
g211
sg163
S'_on__GasThreshold_command'
p477
sg170
I1
sasa(dp478
g143
g157
sg52
S'_LSE4'
p479
sg145
g159
sg147
(lp480
(dp481
g52
g162
sg163
S'w'
sasg24
Nsg150
(lp482
I1862
aI2382
asg152
(lp483
sg154
(lp484
(dp485
g52
g168
sg163
V\u0421\u0447\u0438\u0442\u044b\u0432\u0430\u0442\u0435\u043b\u044c \u041b\u0421-\u04154
p486
sg170
Nsa(dp487
g52
g172
sg163
S'device'
p488
sg170
S'is.as'
p489
sa(dp490
g52
g176
sg163
S'lse4'
p491
sg170
Nsa(dp492
g52
g179
sg163
g180
sg170
I1
sa(dp493
g52
g182
sg163
g183
sg170
Nsasa(dp494
g143
g157
sg52
S'_LSR4'
p495
sg145
g159
sg147
(lp496
(dp497
g52
g162
sg163
S'w'
sasg24
Nsg150
(lp498
I1862
aI2164
asg152
(lp499
sg154
(lp500
(dp501
g52
g168
sg163
V\u0421\u0447\u0438\u0442\u044b\u0432\u0430\u0442\u0435\u043b\u044c \u041b\u0421-\u04204
p502
sg170
Nsa(dp503
g52
g172
sg163
S'device'
p504
sg170
S'is.as'
p505
sa(dp506
g52
g176
sg163
S'lsr4'
p507
sg170
Nsa(dp508
g52
g179
sg163
g180
sg170
I1
sa(dp509
g52
g182
sg163
g183
sg170
Nsasa(dp510
g143
g200
sg52
S'_Label1'
p511
sg145
S'Label'
p512
sg147
(lp513
sg24
Nsg150
(lp514
I1862
aI206
asg152
(lp515
sg154
(lp516
(dp517
g52
S'text'
p518
sg163
V\u0412\u044b\u0431\u0435\u0440\u0435\u0442\u0435 COM-\u043f\u043e\u0440\u0442
p519
sg170
Nsasa(dp520
g143
S'Tkinter'
p521
sg52
S'_Label10'
p522
sg145
S'Label'
p523
sg147
(lp524
sg24
Nsg150
(lp525
I1351
aI7050
asg152
(lp526
sg154
(lp527
(dp528
g52
g518
sg163
S'at frequency trim:'
p529
sg170
Nsasa(dp530
g143
S'Tkinter'
p531
sg52
S'_Label11'
p532
sg145
S'Label'
p533
sg147
(lp534
sg24
Nsg150
(lp535
I3500
aI8767
asg152
(lp536
sg154
(lp537
(dp538
g52
g518
sg163
V\u041b\u0421-\u04204:
p539
sg170
Nsasa(dp540
g143
g531
sg52
S'_Label12'
p541
sg145
g533
sg147
(lp542
sg24
Nsg150
(lp543
I4674
aI8815
asg152
(lp544
sg154
(lp545
(dp546
g52
g518
sg163
V\u041c\u0410:
p547
sg170
Nsasa(dp548
g143
S'Tkinter'
p549
sg52
S'_Label13'
p550
sg145
S'Label'
p551
sg147
(lp552
sg24
Nsg150
(lp553
I3360
aI9154
asg152
(lp554
sg154
(lp555
(dp556
g52
g518
sg163
V\u0414\u043b\u044f \u043a\u0430\u0441\u0441\u0435\u0442\u044b 1-\u041c-5:
p557
sg170
Nsasa(dp558
g143
S'Tkinter'
p559
sg52
S'_Label2'
p560
sg145
S'Label'
p561
sg147
(lp562
sg24
Nsg150
(lp563
I1850
aI2878
asg152
(lp564
sg154
(lp565
(dp566
g52
g518
sg163
V\u0421\u0435\u0440\u0438\u0439\u043d\u044b\u0439 \u043d\u043e\u043c\u0435\u0440:
p567
sg170
Nsasa(dp568
g143
S'Tkinter'
p569
sg52
S'_Label3'
p570
sg145
S'Label'
p571
sg147
(lp572
(dp573
g52
g162
sg163
S'w'
sasg24
Nsg150
(lp574
I341
aI1221
asg152
(lp575
sg154
(lp576
(dp577
g52
g518
sg163
V\u0412\u044b\u0431\u0435\u0440\u0435\u0442\u0435 \u0443\u0441\u0442\u0440\u043e\u0439\u0441\u0442\u0432\u043e:
p578
sg170
Nsa(dp579
g52
S'justify'
p580
sg163
g183
sg170
Nsasa(dp581
g143
g569
sg52
S'_Label4'
p582
sg145
g571
sg147
(lp583
sg24
Nsg150
(lp584
I4680
aI1330
asg152
(lp585
sg154
(lp586
(dp587
g52
g518
sg163
V\u0412\u0432\u0435\u0434\u0438\u0442\u0435 \u043a\u043e\u043c\u0430\u043d\u0434\u0443 \u0434\u043b\u044f \u043e\u0442\u043f\u0440\u0430\u0432\u043a\u0438:
p588
sg170
Nsasa(dp589
g143
g569
sg52
S'_Label5'
p590
sg145
g571
sg147
(lp591
sg24
Nsg150
(lp592
I1850
aI4631
asg152
(lp593
sg154
(lp594
(dp595
g52
g518
sg163
S'phy ipaddr:'
p596
sg170
Nsasa(dp597
g143
g569
sg52
S'_Label6'
p598
sg145
g571
sg147
(lp599
sg24
Nsg150
(lp600
I1850
aI5320
asg152
(lp601
sg154
(lp602
(dp603
g52
g518
sg163
S'eth ipaddr:'
p604
sg170
Nsasa(dp605
g143
g569
sg52
S'_Label7'
p606
sg145
g571
sg147
(lp607
sg24
Nsg150
(lp608
I1850
aI5889
asg152
(lp609
sg154
(lp610
(dp611
g52
g518
sg163
S'phy macaddr:'
p612
sg170
Nsasa(dp613
g143
g569
sg52
S'_Label8'
p614
sg145
g571
sg147
(lp615
sg24
Nsg150
(lp616
I1856
aI6360
asg152
(lp617
sg154
(lp618
(dp619
g52
g518
sg163
S'eth macaddr:'
p620
sg170
Nsasa(dp621
g143
S'Tkinter'
p622
sg52
S'_Label9'
p623
sg145
S'Label'
p624
sg147
(lp625
sg24
Nsg150
(lp626
I1850
aI4075
asg152
(lp627
sg154
(lp628
(dp629
g52
g518
sg163
S'at addr'
p630
sg170
Nsasa(dp631
g143
g157
sg52
S'_MA41'
p632
sg145
g159
sg147
(lp633
(dp634
g52
g162
sg163
S'w'
sasg24
Nsg150
(lp635
I481
aI1560
asg152
(lp636
sg154
(lp637
(dp638
g52
g168
sg163
V\u041c\u043e\u0434\u0443\u043b\u044c \u041c\u0410-41
p639
sg170
Nsa(dp640
g52
g172
sg163
S'device'
p641
sg170
S'is.as'
p642
sa(dp643
g52
g176
sg163
S'ma41'
p644
sg170
Nsa(dp645
g52
g179
sg163
g180
sg170
I1
sa(dp646
g52
g182
sg163
g183
sg170
Nsasa(dp647
g143
g157
sg52
S'_MA45'
p648
sg145
g159
sg147
(lp649
sg24
Nsg150
(lp650
I201
aI1838
asg152
(lp651
sg154
(lp652
(dp653
g52
g168
sg163
V\u041c\u043e\u0434\u0443\u043b\u044c \u041c\u0410-45
p654
sg170
Nsa(dp655
g52
g172
sg163
S'device'
p656
sg170
S'is.as'
p657
sa(dp658
g52
g176
sg163
S'ma45'
p659
sg170
Nsa(dp660
g52
g179
sg163
g180
sg170
I1
sasa(dp661
g143
g200
sg52
S'_ReceivedText'
p662
sg145
S'Text'
p663
sg147
(lp664
sg24
Nsg150
(lp665
I5161
aI5018
asg152
(lp666
sg154
(lp667
(dp668
g52
S'height'
p669
sg163
S'n:35'
p670
sg170
Nsa(dp671
g52
S'font'
p672
sg163
(S'@Arial Unicode MS'
I10
S''
tp673
sg170
Nsasa(dp674
g143
g622
sg52
S'_ataddr'
p675
sg145
S'Entry'
p676
sg147
(lp677
sg24
Nsg150
(lp678
I1856
aI4365
asg152
(lp679
sg154
(lp680
(dp681
g52
S'state'
p682
sg163
S'disabled'
p683
sg170
Nsa(dp684
g52
S'textvariable'
p685
sg163
S'ataddr'
p686
sg170
S's.as'
p687
sasa(dp688
g143
S'Tkinter'
p689
sg52
S'_btn_adf_tst'
p690
sg145
S'Button'
p691
sg147
(lp692
(dp693
g52
g162
sg163
S'w'
sasg24
Nsg150
(lp694
I3737
aI7074
asg152
(lp695
sg154
(lp696
(dp697
g52
g208
sg163
S'adf tst'
p698
sg170
Nsa(dp699
g52
g474
sg163
S'disabled'
p700
sg170
Nsa(dp701
g52
g211
sg163
S'_on__btn_adf_tst_command'
p702
sg170
I1
sasa(dp703
g143
g689
sg52
S'_btn_adf_tst_50'
p704
sg145
g691
sg147
(lp705
(dp706
g52
g162
sg163
S'w'
sasg24
Nsg150
(lp707
I4017
aI7098
asg152
(lp708
sg154
(lp709
(dp710
g52
g208
sg163
S'adf tst 50'
p711
sg170
Nsa(dp712
g52
g474
sg163
g700
sg170
Nsa(dp713
g52
g211
sg163
S'_on__btn_adf_tst_50_command'
p714
sg170
I1
sasa(dp715
g143
g689
sg52
S'_btn_at_dst_rt'
p716
sg145
g691
sg147
(lp717
(dp718
g52
g162
sg163
S'w'
sasg24
Nsg150
(lp719
I3506
aI8319
asg152
(lp720
sg154
(lp721
(dp722
g52
g208
sg163
S'at dst 0xXXXX + rt'
p723
sg170
Nsa(dp724
g52
g474
sg163
g700
sg170
Nsa(dp725
g52
g211
sg163
S'_on__btn_at_dst_rt_command'
p726
sg170
I1
sasa(dp727
g143
g531
sg52
S'_btn_ataddr'
p728
sg145
S'Button'
p729
sg147
(lp730
sg24
Nsg150
(lp731
I4297
aI6687
asg152
(lp732
sg154
(lp733
(dp734
g52
g208
sg163
S'at addr'
p735
sg170
Nsa(dp736
g52
g474
sg163
S'disabled'
p737
sg170
Nsa(dp738
g52
g211
sg163
S'_on__btn_ataddr_command'
p739
sg170
I1
sasa(dp740
g143
g689
sg52
S'_btn_dbg0'
p741
sg145
g691
sg147
(lp742
(dp743
g52
g162
sg163
S'w'
sasg24
Nsg150
(lp744
I3950
aI5707
asg152
(lp745
sg154
(lp746
(dp747
g52
g208
sg163
S'dbg 0'
p748
sg170
Nsa(dp749
g52
g474
sg163
g700
sg170
Nsa(dp750
g52
g211
sg163
S'_on__btn_dbg0_command'
p751
sg170
I1
sasa(dp752
g143
g689
sg52
S'_btn_dbg1'
p753
sg145
g691
sg147
(lp754
(dp755
g52
g162
sg163
S'w'
sasg24
Nsg150
(lp756
I4382
aI5707
asg152
(lp757
sg154
(lp758
(dp759
g52
g208
sg163
S'dbg 1'
p760
sg170
Nsa(dp761
g52
g474
sg163
g700
sg170
Nsa(dp762
g52
g211
sg163
S'_on__btn_dbg1_command'
p763
sg170
I1
sasa(dp764
g143
g549
sg52
S'_btn_dev_mac'
p765
sg145
S'Button'
p766
sg147
(lp767
sg24
Nsg150
(lp768
I4066
aI9528
asg152
(lp769
sg154
(lp770
(dp771
g52
g208
sg163
S'dev mac'
p772
sg170
Nsa(dp773
g52
g474
sg163
S'disabled'
p774
sg170
Nsa(dp775
g52
g211
sg163
S'_on__btn_dev_mac_command'
p776
sg170
I1
sasa(dp777
g143
g549
sg52
S'_btn_dev_req'
p778
sg145
g766
sg147
(lp779
sg24
Nsg150
(lp780
I4674
aI9504
asg152
(lp781
sg154
(lp782
(dp783
g52
g208
sg163
S'dev req'
p784
sg170
Nsa(dp785
g52
g474
sg163
g774
sg170
Nsa(dp786
g52
g211
sg163
S'_on__btn_dev_req_command'
p787
sg170
I1
sasa(dp788
g143
g549
sg52
S'_btn_enter'
p789
sg145
g766
sg147
(lp790
sg24
Nsg150
(lp791
I3822
aI9565
asg152
(lp792
sg154
(lp793
(dp794
g52
g208
sg163
S'Enter key'
p795
sg170
Nsa(dp796
g52
g474
sg163
g774
sg170
Nsa(dp797
g52
g211
sg163
S'_on__btn_enter_command'
p798
sg170
I1
sasa(dp799
g143
g689
sg52
S'_btn_exe_at_dst_rt'
p800
sg145
g691
sg147
(lp801
sg24
Nsg150
(lp802
I4358
aI8815
asg152
(lp803
sg154
(lp804
(dp805
g52
g208
sg163
S'exe 0xXXXX at dst 0xXXXX + rt'
p806
sg170
Nsa(dp807
g52
g474
sg163
g700
sg170
Nsa(dp808
g52
g211
sg163
S'_on__btn_exe_at_dst_rt_command'
p809
sg170
I1
sasa(dp810
g143
S'Tkinter'
p811
sg52
S'_btn_lamp_wdg_0'
p812
sg145
S'Button'
p813
sg147
(lp814
sg24
Nsg150
(lp815
I414
aI9093
asg152
(lp816
sg154
(lp817
(dp818
g52
g208
sg163
S'lamp wdg 0'
p819
sg170
Nsa(dp820
g52
g474
sg163
S'disabled'
p821
sg170
Nsa(dp822
g52
g211
sg163
S'_on__btn_adf_wdg_0_command'
p823
sg170
I1
sasa(dp824
g143
S'Tkinter'
p825
sg52
S'_btn_phyipaddr'
p826
sg145
S'Button'
p827
sg147
(lp828
(dp829
g52
g162
sg163
S'w'
sasg24
Nsg150
(lp830
I3974
aI6699
asg152
(lp831
sg154
(lp832
(dp833
g52
g208
sg163
S'phy ipaddr'
p834
sg170
Nsa(dp835
g52
g474
sg163
S'disabled'
p836
sg170
Nsa(dp837
g52
g211
sg163
S'_on__btn_phyipaddr_command'
p838
sg170
I1
sasa(dp839
g143
g825
sg52
S'_btn_ping'
p840
sg145
g827
sg147
(lp841
sg24
Nsg150
(lp842
I3956
aI6227
asg152
(lp843
sg154
(lp844
(dp845
g52
g208
sg163
S'ping'
p846
sg170
Nsa(dp847
g52
g474
sg163
g836
sg170
Nsa(dp848
g52
g211
sg163
S'_on__btn_ping_command'
p849
sg170
I1
sasa(dp850
g143
g549
sg52
S'_btn_root'
p851
sg145
g766
sg147
(lp852
(dp853
g52
g162
sg163
S'w'
sasg24
Nsg150
(lp854
I3256
aI9553
asg152
(lp855
sg154
(lp856
(dp857
g52
g208
sg163
S'root'
p858
sg170
Nsa(dp859
g52
g474
sg163
g774
sg170
Nsa(dp860
g52
g211
sg163
S'_on__btn_root_command'
p861
sg170
I1
sasa(dp862
g143
g549
sg52
S'_btn_talnakh'
p863
sg145
g766
sg147
(lp864
sg24
Nsg150
(lp865
I3524
aI9565
asg152
(lp866
sg154
(lp867
(dp868
g52
g208
sg163
S'talnakh'
p869
sg170
Nsa(dp870
g52
g474
sg163
g774
sg170
Nsa(dp871
g52
g211
sg163
S'_on__btn_tanakh_command'
p872
sg170
I1
sasa(dp873
g143
g689
sg52
S'_entry_at_addr'
p874
sg145
S'Entry'
p875
sg147
(lp876
sg24
Nsg150
(lp877
I4090
aI8259
asg152
(lp878
sg154
(lp879
(dp880
g52
g685
sg163
S'entry_at_addr'
p881
sg170
S's.as'
p882
sasa(dp883
g143
g689
sg52
S'_entry_at_addr_exe'
p884
sg145
g875
sg147
(lp885
sg24
Nsg150
(lp886
I3834
aI8779
asg152
(lp887
sg154
(lp888
(dp889
g52
g685
sg163
S'entry_at_addr_exe'
p890
sg170
S's.as'
p891
sasa(dp892
g143
g689
sg52
S'_entry_at_addr_rt'
p893
sg145
g875
sg147
(lp894
sg24
Nsg150
(lp895
I4960
aI8815
asg152
(lp896
sg154
(lp897
(dp898
g52
g685
sg163
S'entry_at_addr_rt'
p899
sg170
S's.as'
p900
sasa(dp901
g143
g549
sg52
S'_entry_dev_mac'
p902
sg145
S'Entry'
p903
sg147
(lp904
sg24
Nsg150
(lp905
I4364
aI9541
asg152
(lp906
sg154
(lp907
(dp908
g52
g685
sg163
S'dev_mac'
p909
sg170
S's.as'
p910
sasa(dp911
g143
g569
sg52
S'_ethipaddr'
p912
sg145
S'Entry'
p913
sg147
(lp914
sg24
Nsg150
(lp915
I1856
aI5635
asg152
(lp916
sg154
(lp917
(dp918
g52
g682
sg163
g683
sg170
Nsa(dp919
g52
g685
sg163
S'ethipaddr'
p920
sg170
S's.as'
p921
sasa(dp922
g143
g569
sg52
S'_ethmacaddr'
p923
sg145
g913
sg147
(lp924
sg24
Nsg150
(lp925
I1850
aI6638
asg152
(lp926
sg154
(lp927
(dp928
g52
g682
sg163
g683
sg170
Nsa(dp929
g52
g685
sg163
S'ethmacaddr'
p930
sg170
S's.as'
p931
sasa(dp932
g143
S'Tkinter'
p933
sg52
S'_ifbw0'
p934
sg145
S'Radiobutton'
p935
sg147
(lp936
sg24
Nsg150
(lp937
I1339
aI8065
asg152
(lp938
sg154
(lp939
(dp940
g52
g168
sg163
Vifbw 0 (\u0434\u043b\u044f ADF7021)
p941
sg170
Nsa(dp942
g52
g172
sg163
S'ifbw'
p943
sg170
S'is.ai'
p944
sa(dp945
g52
g176
sg163
S'0'
sg170
Nsasa(dp946
g143
g933
sg52
S'_ifbw1'
p947
sg145
g935
sg147
(lp948
sg24
Nsg150
(lp949
I1327
aI8368
asg152
(lp950
sg154
(lp951
(dp952
g52
g168
sg163
Vifbw 1 (\u0434\u043b\u044f ADF7021-N)
p953
sg170
Nsa(dp954
g52
g172
sg163
S'ifbw'
p955
sg170
S'is.ai'
p956
sa(dp957
g52
g176
sg163
S'1'
sg170
Nsasa(dp958
g143
g825
sg52
S'_ipaddr'
p959
sg145
S'Entry'
p960
sg147
(lp961
sg24
Nsg150
(lp962
I4315
aI6227
asg152
(lp963
sg154
(lp964
(dp965
g52
g685
sg163
S'entry_ipaddr'
p966
sg170
S's.as'
p967
sasa(dp968
g143
g200
sg52
S'_label_Rcvd_Text'
p969
sg145
g512
sg147
(lp970
sg24
Nsg150
(lp971
I5192
aI4450
asg152
(lp972
sg154
(lp973
(dp974
g52
g518
sg163
V\u041f\u0440\u0438\u043d\u044f\u0442\u043e \u043e\u0442 \u0443\u0441\u0442\u0440\u043e\u0439\u0441\u0442\u0432\u0430:
p975
sg170
Nsasa(dp976
g143
g521
sg52
S'_left'
p977
sg145
S'Button'
p978
sg147
(lp979
sg24
Nsg150
(lp980
I219
aI7533
asg152
(lp981
sg154
(lp982
(dp983
g52
g208
sg163
S'<-------(left key)--at trim left'
p984
sg170
Nsa(dp985
g52
g474
sg163
S'disabled'
p986
sg170
Nsa(dp987
g52
g211
sg163
S'_on__left_command'
p988
sg170
I1
sasa(dp989
g143
S'Tkinter'
p990
sg52
S'_ma45_treshold_patch'
p991
sg145
S'Checkbutton'
p992
sg147
(lp993
sg24
Nsg150
(lp994
I998
aI1826
asg152
(lp995
sg154
(lp996
(dp997
g52
g193
sg163
S'MA-45 patch'
p998
sg170
Nsa(dp999
g52
S'state'
p1000
sg163
S'disabled'
p1001
sg170
Nsa(dp1002
g52
g196
sg163
S'ma45_treshold_patch'
p1003
sg170
S'sif.ai'
p1004
sasa(dp1005
g143
g569
sg52
S'_phyipaddr'
p1006
sg145
g913
sg147
(lp1007
sg24
Nsg150
(lp1008
I1856
aI4970
asg152
(lp1009
sg154
(lp1010
(dp1011
g52
g682
sg163
g683
sg170
Nsa(dp1012
g52
g685
sg163
S'phyipaddr'
p1013
sg170
S's.as'
p1014
sasa(dp1015
g143
g569
sg52
S'_phymacaddr'
p1016
sg145
g913
sg147
(lp1017
sg24
Nsg150
(lp1018
I1850
aI6143
asg152
(lp1019
sg154
(lp1020
(dp1021
g52
g682
sg163
g683
sg170
Nsa(dp1022
g52
g685
sg163
S'phymacaddr'
p1023
sg170
S's.as'
p1024
sasa(dp1025
g143
g200
sg52
g54
sg145
g202
sg147
(lp1026
sg24
Nsg150
(lp1027
I1875
aI3374
asg152
(lp1028
sg154
(lp1029
(dp1030
g52
g208
sg163
S'TEST'
p1031
sg170
Nsa(dp1032
g52
g474
sg163
S'disabled'
p1033
sg170
Nsa(dp1034
g52
g211
sg163
S'_on__prog_and_increment_command'
p1035
sg170
I1
sasa(dp1036
g143
g521
sg52
S'_right'
p1037
sg145
g978
sg147
(lp1038
sg24
Nsg150
(lp1039
I755
aI7582
asg152
(lp1040
sg154
(lp1041
(dp1042
g52
g208
sg163
S'at trim right--(right key)------->'
p1043
sg170
Nsa(dp1044
g52
g474
sg163
g986
sg170
Nsa(dp1045
g52
g211
sg163
S'_on__right_command'
p1046
sg170
I1
sasa(dp1047
g143
g200
sg52
S'_send'
p1048
sg145
g202
sg147
(lp1049
(dp1050
g52
g244
sg163
S'x'
sasg24
Nsg150
(lp1051
I3987
aI2938
asg152
(lp1052
sg154
(lp1053
(dp1054
g52
g208
sg163
V\u041e\u0442\u043f\u0440\u0430\u0432\u0438\u0442\u044c \u043d\u0430 \u0443\u0441\u0442\u0440\u043e\u0439\u0441\u0442\u0432\u043e \u043a\u043e\u043c\u0430\u043d\u0434\u0443
p1055
sg170
Nsa(dp1056
g52
g474
sg163
S'disabled'
p1057
sg170
Nsa(dp1058
g52
g211
sg163
S'_on__send_command'
p1059
sg170
I1
sasa(dp1060
g143
S'Tkinter'
p1061
sg52
S'_send2'
p1062
sg145
S'Button'
p1063
sg147
(lp1064
sg24
Nsg150
(lp1065
I4705
aI2963
asg152
(lp1066
sg154
(lp1067
(dp1068
g52
g208
sg163
V\u041e\u0442\u043f\u0440\u0430\u0432\u0438\u0442\u044c \u043d\u0430 \u0443\u0441\u0442\u0440\u043e\u0439\u0441\u0442\u0432\u043e \u043a\u043e\u043c\u0430\u043d\u0434\u0443
p1069
sg170
Nsa(dp1070
g52
g474
sg163
S'disabled'
p1071
sg170
Nsa(dp1072
g52
g211
sg163
S'_on__send2_command'
p1073
sg170
I1
sasa(dp1074
g143
g200
sg52
S'_serialnumber'
p1075
sg145
S'Entry'
p1076
sg147
(lp1077
sg24
Nsg150
(lp1078
I1850
aI3132
asg152
(lp1079
sg154
(lp1080
(dp1081
g52
g685
sg163
S'serial_number'
p1082
sg170
S's.as'
p1083
sasa(dp1084
g143
S'Tkinter'
p1085
sg52
S'_set_ifbw'
p1086
sg145
S'Button'
p1087
sg147
(lp1088
sg24
Nsg150
(lp1089
I1795
aI8259
asg152
(lp1090
sg154
(lp1091
(dp1092
g52
g208
sg163
S'Set IFBW'
p1093
sg170
Nsa(dp1094
g52
g474
sg163
g683
sg170
Nsa(dp1095
g52
g211
sg163
S'_on__set_ifbw_command'
p1096
sg170
I1
sasa(dp1097
g143
g200
sg52
S'_text_to_send'
p1098
sg145
g1076
sg147
(lp1099
sg24
Nsg150
(lp1100
I3987
aI2189
asg152
(lp1101
sg154
(lp1102
(dp1103
g52
g685
sg163
S'text_to_send'
p1104
sg170
S's.as'
p1105
sasa(dp1106
g143
g1061
sg52
S'_text_to_send2'
p1107
sg145
S'Entry'
p1108
sg147
(lp1109
sg24
Nsg150
(lp1110
I4680
aI2201
asg152
(lp1111
sg154
(lp1112
(dp1113
g52
g685
sg163
S'text_to_send2'
p1114
sg170
S's.as'
p1115
sasasS'BaseClass'
p1116
g56
sg34
I1
sasS'VisibleForm'
p1117
g53
sS'SelectedForm'
p1118
g53
sg52
g6
sa.